Archive member included because of file (symbol)

/opt/altera/nios2eds/bin/gnu/H-i686-pc-linux-gnu/bin/../lib/gcc/nios2-elf/4.1.2/mno-hw-mul/libgcc.a(lib2-divmod.o)
                              obj/default/producer_consumer.o (__modsi3)
/opt/altera/nios2eds/bin/gnu/H-i686-pc-linux-gnu/bin/../lib/gcc/nios2-elf/4.1.2/../../../../nios2-elf/lib/mno-hw-mul/libc.a(lib_a-exit.o)
                              obj/default/alt_ucosii_simple_error_check.o (exit)
/opt/altera/nios2eds/bin/gnu/H-i686-pc-linux-gnu/bin/../lib/gcc/nios2-elf/4.1.2/../../../../nios2-elf/lib/mno-hw-mul/libc.a(lib_a-fprintf.o)
                              obj/default/alt_ucosii_simple_error_check.o (fprintf)
/opt/altera/nios2eds/bin/gnu/H-i686-pc-linux-gnu/bin/../lib/gcc/nios2-elf/4.1.2/../../../../nios2-elf/lib/mno-hw-mul/libc.a(lib_a-fwrite.o)
                              obj/default/alt_ucosii_simple_error_check.o (fwrite)
/opt/altera/nios2eds/bin/gnu/H-i686-pc-linux-gnu/bin/../lib/gcc/nios2-elf/4.1.2/../../../../nios2-elf/lib/mno-hw-mul/libc.a(lib_a-impure.o)
                              obj/default/alt_ucosii_simple_error_check.o (_impure_ptr)
/opt/altera/nios2eds/bin/gnu/H-i686-pc-linux-gnu/bin/../lib/gcc/nios2-elf/4.1.2/../../../../nios2-elf/lib/mno-hw-mul/libc.a(lib_a-printf.o)
                              obj/default/producer_consumer.o (printf)
/opt/altera/nios2eds/bin/gnu/H-i686-pc-linux-gnu/bin/../lib/gcc/nios2-elf/4.1.2/../../../../nios2-elf/lib/mno-hw-mul/libc.a(lib_a-puts.o)
                              obj/default/alt_ucosii_simple_error_check.o (puts)
/opt/altera/nios2eds/bin/gnu/H-i686-pc-linux-gnu/bin/../lib/gcc/nios2-elf/4.1.2/../../../../nios2-elf/lib/mno-hw-mul/libc.a(lib_a-strlen.o)
                              /opt/altera/nios2eds/bin/gnu/H-i686-pc-linux-gnu/bin/../lib/gcc/nios2-elf/4.1.2/../../../../nios2-elf/lib/mno-hw-mul/libc.a(lib_a-puts.o) (strlen)
/opt/altera/nios2eds/bin/gnu/H-i686-pc-linux-gnu/bin/../lib/gcc/nios2-elf/4.1.2/../../../../nios2-elf/lib/mno-hw-mul/libc.a(lib_a-vfprintf.o)
                              /opt/altera/nios2eds/bin/gnu/H-i686-pc-linux-gnu/bin/../lib/gcc/nios2-elf/4.1.2/../../../../nios2-elf/lib/mno-hw-mul/libc.a(lib_a-printf.o) (___vfprintf_internal_r)
/opt/altera/nios2eds/bin/gnu/H-i686-pc-linux-gnu/bin/../lib/gcc/nios2-elf/4.1.2/../../../../nios2-elf/lib/mno-hw-mul/libc.a(lib_a-wsetup.o)
                              /opt/altera/nios2eds/bin/gnu/H-i686-pc-linux-gnu/bin/../lib/gcc/nios2-elf/4.1.2/../../../../nios2-elf/lib/mno-hw-mul/libc.a(lib_a-vfprintf.o) (__swsetup_r)
/opt/altera/nios2eds/bin/gnu/H-i686-pc-linux-gnu/bin/../lib/gcc/nios2-elf/4.1.2/../../../../nios2-elf/lib/mno-hw-mul/libc.a(lib_a-__call_atexit.o)
                              /opt/altera/nios2eds/bin/gnu/H-i686-pc-linux-gnu/bin/../lib/gcc/nios2-elf/4.1.2/../../../../nios2-elf/lib/mno-hw-mul/libc.a(lib_a-exit.o) (__call_exitprocs)
/opt/altera/nios2eds/bin/gnu/H-i686-pc-linux-gnu/bin/../lib/gcc/nios2-elf/4.1.2/../../../../nios2-elf/lib/mno-hw-mul/libc.a(lib_a-dtoa.o)
                              /opt/altera/nios2eds/bin/gnu/H-i686-pc-linux-gnu/bin/../lib/gcc/nios2-elf/4.1.2/../../../../nios2-elf/lib/mno-hw-mul/libc.a(lib_a-vfprintf.o) (_dtoa_r)
/opt/altera/nios2eds/bin/gnu/H-i686-pc-linux-gnu/bin/../lib/gcc/nios2-elf/4.1.2/../../../../nios2-elf/lib/mno-hw-mul/libc.a(lib_a-fflush.o)
                              /opt/altera/nios2eds/bin/gnu/H-i686-pc-linux-gnu/bin/../lib/gcc/nios2-elf/4.1.2/../../../../nios2-elf/lib/mno-hw-mul/libc.a(lib_a-vfprintf.o) (_fflush_r)
/opt/altera/nios2eds/bin/gnu/H-i686-pc-linux-gnu/bin/../lib/gcc/nios2-elf/4.1.2/../../../../nios2-elf/lib/mno-hw-mul/libc.a(lib_a-findfp.o)
                              /opt/altera/nios2eds/bin/gnu/H-i686-pc-linux-gnu/bin/../lib/gcc/nios2-elf/4.1.2/../../../../nios2-elf/lib/mno-hw-mul/libc.a(lib_a-fwrite.o) (__sinit)
/opt/altera/nios2eds/bin/gnu/H-i686-pc-linux-gnu/bin/../lib/gcc/nios2-elf/4.1.2/../../../../nios2-elf/lib/mno-hw-mul/libc.a(lib_a-freer.o)
                              /opt/altera/nios2eds/bin/gnu/H-i686-pc-linux-gnu/bin/../lib/gcc/nios2-elf/4.1.2/../../../../nios2-elf/lib/mno-hw-mul/libc.a(lib_a-wsetup.o) (_free_r)
/opt/altera/nios2eds/bin/gnu/H-i686-pc-linux-gnu/bin/../lib/gcc/nios2-elf/4.1.2/../../../../nios2-elf/lib/mno-hw-mul/libc.a(lib_a-fvwrite.o)
                              /opt/altera/nios2eds/bin/gnu/H-i686-pc-linux-gnu/bin/../lib/gcc/nios2-elf/4.1.2/../../../../nios2-elf/lib/mno-hw-mul/libc.a(lib_a-fwrite.o) (__sfvwrite_r)
/opt/altera/nios2eds/bin/gnu/H-i686-pc-linux-gnu/bin/../lib/gcc/nios2-elf/4.1.2/../../../../nios2-elf/lib/mno-hw-mul/libc.a(lib_a-fwalk.o)
                              /opt/altera/nios2eds/bin/gnu/H-i686-pc-linux-gnu/bin/../lib/gcc/nios2-elf/4.1.2/../../../../nios2-elf/lib/mno-hw-mul/libc.a(lib_a-fflush.o) (_fwalk_reent)
/opt/altera/nios2eds/bin/gnu/H-i686-pc-linux-gnu/bin/../lib/gcc/nios2-elf/4.1.2/../../../../nios2-elf/lib/mno-hw-mul/libc.a(lib_a-locale.o)
                              /opt/altera/nios2eds/bin/gnu/H-i686-pc-linux-gnu/bin/../lib/gcc/nios2-elf/4.1.2/../../../../nios2-elf/lib/mno-hw-mul/libc.a(lib_a-vfprintf.o) (_localeconv_r)
/opt/altera/nios2eds/bin/gnu/H-i686-pc-linux-gnu/bin/../lib/gcc/nios2-elf/4.1.2/../../../../nios2-elf/lib/mno-hw-mul/libc.a(lib_a-makebuf.o)
                              /opt/altera/nios2eds/bin/gnu/H-i686-pc-linux-gnu/bin/../lib/gcc/nios2-elf/4.1.2/../../../../nios2-elf/lib/mno-hw-mul/libc.a(lib_a-wsetup.o) (__smakebuf_r)
/opt/altera/nios2eds/bin/gnu/H-i686-pc-linux-gnu/bin/../lib/gcc/nios2-elf/4.1.2/../../../../nios2-elf/lib/mno-hw-mul/libc.a(lib_a-mallocr.o)
                              /opt/altera/nios2eds/bin/gnu/H-i686-pc-linux-gnu/bin/../lib/gcc/nios2-elf/4.1.2/../../../../nios2-elf/lib/mno-hw-mul/libc.a(lib_a-findfp.o) (_malloc_r)
/opt/altera/nios2eds/bin/gnu/H-i686-pc-linux-gnu/bin/../lib/gcc/nios2-elf/4.1.2/../../../../nios2-elf/lib/mno-hw-mul/libc.a(lib_a-memchr.o)
                              /opt/altera/nios2eds/bin/gnu/H-i686-pc-linux-gnu/bin/../lib/gcc/nios2-elf/4.1.2/../../../../nios2-elf/lib/mno-hw-mul/libc.a(lib_a-vfprintf.o) (memchr)
/opt/altera/nios2eds/bin/gnu/H-i686-pc-linux-gnu/bin/../lib/gcc/nios2-elf/4.1.2/../../../../nios2-elf/lib/mno-hw-mul/libc.a(lib_a-memcpy.o)
                              /opt/altera/nios2eds/bin/gnu/H-i686-pc-linux-gnu/bin/../lib/gcc/nios2-elf/4.1.2/../../../../nios2-elf/lib/mno-hw-mul/libc.a(lib_a-dtoa.o) (memcpy)
/opt/altera/nios2eds/bin/gnu/H-i686-pc-linux-gnu/bin/../lib/gcc/nios2-elf/4.1.2/../../../../nios2-elf/lib/mno-hw-mul/libc.a(lib_a-memmove.o)
                              /opt/altera/nios2eds/bin/gnu/H-i686-pc-linux-gnu/bin/../lib/gcc/nios2-elf/4.1.2/../../../../nios2-elf/lib/mno-hw-mul/libc.a(lib_a-fvwrite.o) (memmove)
/opt/altera/nios2eds/bin/gnu/H-i686-pc-linux-gnu/bin/../lib/gcc/nios2-elf/4.1.2/../../../../nios2-elf/lib/mno-hw-mul/libc.a(lib_a-memset.o)
                              /opt/altera/nios2eds/bin/gnu/H-i686-pc-linux-gnu/bin/../lib/gcc/nios2-elf/4.1.2/../../../../nios2-elf/lib/mno-hw-mul/libc.a(lib_a-findfp.o) (memset)
/opt/altera/nios2eds/bin/gnu/H-i686-pc-linux-gnu/bin/../lib/gcc/nios2-elf/4.1.2/../../../../nios2-elf/lib/mno-hw-mul/libc.a(lib_a-mprec.o)
                              /opt/altera/nios2eds/bin/gnu/H-i686-pc-linux-gnu/bin/../lib/gcc/nios2-elf/4.1.2/../../../../nios2-elf/lib/mno-hw-mul/libc.a(lib_a-dtoa.o) (_Bfree)
/opt/altera/nios2eds/bin/gnu/H-i686-pc-linux-gnu/bin/../lib/gcc/nios2-elf/4.1.2/../../../../nios2-elf/lib/mno-hw-mul/libc.a(lib_a-reallocr.o)
                              /opt/altera/nios2eds/bin/gnu/H-i686-pc-linux-gnu/bin/../lib/gcc/nios2-elf/4.1.2/../../../../nios2-elf/lib/mno-hw-mul/libc.a(lib_a-fvwrite.o) (_realloc_r)
/opt/altera/nios2eds/bin/gnu/H-i686-pc-linux-gnu/bin/../lib/gcc/nios2-elf/4.1.2/../../../../nios2-elf/lib/mno-hw-mul/libc.a(lib_a-s_isinfd.o)
                              /opt/altera/nios2eds/bin/gnu/H-i686-pc-linux-gnu/bin/../lib/gcc/nios2-elf/4.1.2/../../../../nios2-elf/lib/mno-hw-mul/libc.a(lib_a-vfprintf.o) (__isinfd)
/opt/altera/nios2eds/bin/gnu/H-i686-pc-linux-gnu/bin/../lib/gcc/nios2-elf/4.1.2/../../../../nios2-elf/lib/mno-hw-mul/libc.a(lib_a-s_isnand.o)
                              /opt/altera/nios2eds/bin/gnu/H-i686-pc-linux-gnu/bin/../lib/gcc/nios2-elf/4.1.2/../../../../nios2-elf/lib/mno-hw-mul/libc.a(lib_a-vfprintf.o) (__isnand)
/opt/altera/nios2eds/bin/gnu/H-i686-pc-linux-gnu/bin/../lib/gcc/nios2-elf/4.1.2/../../../../nios2-elf/lib/mno-hw-mul/libc.a(lib_a-sbrkr.o)
                              /opt/altera/nios2eds/bin/gnu/H-i686-pc-linux-gnu/bin/../lib/gcc/nios2-elf/4.1.2/../../../../nios2-elf/lib/mno-hw-mul/libc.a(lib_a-freer.o) (_sbrk_r)
/opt/altera/nios2eds/bin/gnu/H-i686-pc-linux-gnu/bin/../lib/gcc/nios2-elf/4.1.2/../../../../nios2-elf/lib/mno-hw-mul/libc.a(lib_a-stdio.o)
                              /opt/altera/nios2eds/bin/gnu/H-i686-pc-linux-gnu/bin/../lib/gcc/nios2-elf/4.1.2/../../../../nios2-elf/lib/mno-hw-mul/libc.a(lib_a-findfp.o) (__sclose)
/opt/altera/nios2eds/bin/gnu/H-i686-pc-linux-gnu/bin/../lib/gcc/nios2-elf/4.1.2/../../../../nios2-elf/lib/mno-hw-mul/libc.a(lib_a-strcmp.o)
                              /opt/altera/nios2eds/bin/gnu/H-i686-pc-linux-gnu/bin/../lib/gcc/nios2-elf/4.1.2/../../../../nios2-elf/lib/mno-hw-mul/libc.a(lib_a-locale.o) (strcmp)
/opt/altera/nios2eds/bin/gnu/H-i686-pc-linux-gnu/bin/../lib/gcc/nios2-elf/4.1.2/../../../../nios2-elf/lib/mno-hw-mul/libc.a(lib_a-writer.o)
                              /opt/altera/nios2eds/bin/gnu/H-i686-pc-linux-gnu/bin/../lib/gcc/nios2-elf/4.1.2/../../../../nios2-elf/lib/mno-hw-mul/libc.a(lib_a-stdio.o) (_write_r)
/opt/altera/nios2eds/bin/gnu/H-i686-pc-linux-gnu/bin/../lib/gcc/nios2-elf/4.1.2/../../../../nios2-elf/lib/mno-hw-mul/libc.a(lib_a-callocr.o)
                              /opt/altera/nios2eds/bin/gnu/H-i686-pc-linux-gnu/bin/../lib/gcc/nios2-elf/4.1.2/../../../../nios2-elf/lib/mno-hw-mul/libc.a(lib_a-mprec.o) (_calloc_r)
/opt/altera/nios2eds/bin/gnu/H-i686-pc-linux-gnu/bin/../lib/gcc/nios2-elf/4.1.2/../../../../nios2-elf/lib/mno-hw-mul/libc.a(lib_a-closer.o)
                              /opt/altera/nios2eds/bin/gnu/H-i686-pc-linux-gnu/bin/../lib/gcc/nios2-elf/4.1.2/../../../../nios2-elf/lib/mno-hw-mul/libc.a(lib_a-stdio.o) (_close_r)
/opt/altera/nios2eds/bin/gnu/H-i686-pc-linux-gnu/bin/../lib/gcc/nios2-elf/4.1.2/../../../../nios2-elf/lib/mno-hw-mul/libc.a(lib_a-fclose.o)
                              /opt/altera/nios2eds/bin/gnu/H-i686-pc-linux-gnu/bin/../lib/gcc/nios2-elf/4.1.2/../../../../nios2-elf/lib/mno-hw-mul/libc.a(lib_a-findfp.o) (fclose)
/opt/altera/nios2eds/bin/gnu/H-i686-pc-linux-gnu/bin/../lib/gcc/nios2-elf/4.1.2/../../../../nios2-elf/lib/mno-hw-mul/libc.a(lib_a-fstatr.o)
                              /opt/altera/nios2eds/bin/gnu/H-i686-pc-linux-gnu/bin/../lib/gcc/nios2-elf/4.1.2/../../../../nios2-elf/lib/mno-hw-mul/libc.a(lib_a-makebuf.o) (_fstat_r)
/opt/altera/nios2eds/bin/gnu/H-i686-pc-linux-gnu/bin/../lib/gcc/nios2-elf/4.1.2/../../../../nios2-elf/lib/mno-hw-mul/libc.a(lib_a-int_errno.o)
                              /opt/altera/nios2eds/bin/gnu/H-i686-pc-linux-gnu/bin/../lib/gcc/nios2-elf/4.1.2/../../../../nios2-elf/lib/mno-hw-mul/libc.a(lib_a-sbrkr.o) (errno)
/opt/altera/nios2eds/bin/gnu/H-i686-pc-linux-gnu/bin/../lib/gcc/nios2-elf/4.1.2/../../../../nios2-elf/lib/mno-hw-mul/libc.a(lib_a-isattyr.o)
                              /opt/altera/nios2eds/bin/gnu/H-i686-pc-linux-gnu/bin/../lib/gcc/nios2-elf/4.1.2/../../../../nios2-elf/lib/mno-hw-mul/libc.a(lib_a-makebuf.o) (_isatty_r)
/opt/altera/nios2eds/bin/gnu/H-i686-pc-linux-gnu/bin/../lib/gcc/nios2-elf/4.1.2/../../../../nios2-elf/lib/mno-hw-mul/libc.a(lib_a-lseekr.o)
                              /opt/altera/nios2eds/bin/gnu/H-i686-pc-linux-gnu/bin/../lib/gcc/nios2-elf/4.1.2/../../../../nios2-elf/lib/mno-hw-mul/libc.a(lib_a-stdio.o) (_lseek_r)
/opt/altera/nios2eds/bin/gnu/H-i686-pc-linux-gnu/bin/../lib/gcc/nios2-elf/4.1.2/../../../../nios2-elf/lib/mno-hw-mul/libc.a(lib_a-readr.o)
                              /opt/altera/nios2eds/bin/gnu/H-i686-pc-linux-gnu/bin/../lib/gcc/nios2-elf/4.1.2/../../../../nios2-elf/lib/mno-hw-mul/libc.a(lib_a-stdio.o) (_read_r)
/opt/altera/nios2eds/bin/gnu/H-i686-pc-linux-gnu/bin/../lib/gcc/nios2-elf/4.1.2/mno-hw-mul/libgcc.a(_udivdi3.o)
                              /opt/altera/nios2eds/bin/gnu/H-i686-pc-linux-gnu/bin/../lib/gcc/nios2-elf/4.1.2/../../../../nios2-elf/lib/mno-hw-mul/libc.a(lib_a-vfprintf.o) (__udivdi3)
/opt/altera/nios2eds/bin/gnu/H-i686-pc-linux-gnu/bin/../lib/gcc/nios2-elf/4.1.2/mno-hw-mul/libgcc.a(_umoddi3.o)
                              /opt/altera/nios2eds/bin/gnu/H-i686-pc-linux-gnu/bin/../lib/gcc/nios2-elf/4.1.2/../../../../nios2-elf/lib/mno-hw-mul/libc.a(lib_a-vfprintf.o) (__umoddi3)
/opt/altera/nios2eds/bin/gnu/H-i686-pc-linux-gnu/bin/../lib/gcc/nios2-elf/4.1.2/mno-hw-mul/libgcc.a(_addsub_df.o)
                              /opt/altera/nios2eds/bin/gnu/H-i686-pc-linux-gnu/bin/../lib/gcc/nios2-elf/4.1.2/../../../../nios2-elf/lib/mno-hw-mul/libc.a(lib_a-dtoa.o) (__subdf3)
/opt/altera/nios2eds/bin/gnu/H-i686-pc-linux-gnu/bin/../lib/gcc/nios2-elf/4.1.2/mno-hw-mul/libgcc.a(_mul_df.o)
                              /opt/altera/nios2eds/bin/gnu/H-i686-pc-linux-gnu/bin/../lib/gcc/nios2-elf/4.1.2/../../../../nios2-elf/lib/mno-hw-mul/libc.a(lib_a-dtoa.o) (__muldf3)
/opt/altera/nios2eds/bin/gnu/H-i686-pc-linux-gnu/bin/../lib/gcc/nios2-elf/4.1.2/mno-hw-mul/libgcc.a(_div_df.o)
                              /opt/altera/nios2eds/bin/gnu/H-i686-pc-linux-gnu/bin/../lib/gcc/nios2-elf/4.1.2/../../../../nios2-elf/lib/mno-hw-mul/libc.a(lib_a-dtoa.o) (__divdf3)
/opt/altera/nios2eds/bin/gnu/H-i686-pc-linux-gnu/bin/../lib/gcc/nios2-elf/4.1.2/mno-hw-mul/libgcc.a(_eq_df.o)
                              /opt/altera/nios2eds/bin/gnu/H-i686-pc-linux-gnu/bin/../lib/gcc/nios2-elf/4.1.2/../../../../nios2-elf/lib/mno-hw-mul/libc.a(lib_a-vfprintf.o) (__eqdf2)
/opt/altera/nios2eds/bin/gnu/H-i686-pc-linux-gnu/bin/../lib/gcc/nios2-elf/4.1.2/mno-hw-mul/libgcc.a(_ne_df.o)
                              /opt/altera/nios2eds/bin/gnu/H-i686-pc-linux-gnu/bin/../lib/gcc/nios2-elf/4.1.2/../../../../nios2-elf/lib/mno-hw-mul/libc.a(lib_a-vfprintf.o) (__nedf2)
/opt/altera/nios2eds/bin/gnu/H-i686-pc-linux-gnu/bin/../lib/gcc/nios2-elf/4.1.2/mno-hw-mul/libgcc.a(_gt_df.o)
                              /opt/altera/nios2eds/bin/gnu/H-i686-pc-linux-gnu/bin/../lib/gcc/nios2-elf/4.1.2/../../../../nios2-elf/lib/mno-hw-mul/libc.a(lib_a-dtoa.o) (__gtdf2)
/opt/altera/nios2eds/bin/gnu/H-i686-pc-linux-gnu/bin/../lib/gcc/nios2-elf/4.1.2/mno-hw-mul/libgcc.a(_ge_df.o)
                              /opt/altera/nios2eds/bin/gnu/H-i686-pc-linux-gnu/bin/../lib/gcc/nios2-elf/4.1.2/../../../../nios2-elf/lib/mno-hw-mul/libc.a(lib_a-dtoa.o) (__gedf2)
/opt/altera/nios2eds/bin/gnu/H-i686-pc-linux-gnu/bin/../lib/gcc/nios2-elf/4.1.2/mno-hw-mul/libgcc.a(_lt_df.o)
                              /opt/altera/nios2eds/bin/gnu/H-i686-pc-linux-gnu/bin/../lib/gcc/nios2-elf/4.1.2/../../../../nios2-elf/lib/mno-hw-mul/libc.a(lib_a-vfprintf.o) (__ltdf2)
/opt/altera/nios2eds/bin/gnu/H-i686-pc-linux-gnu/bin/../lib/gcc/nios2-elf/4.1.2/mno-hw-mul/libgcc.a(_si_to_df.o)
                              /opt/altera/nios2eds/bin/gnu/H-i686-pc-linux-gnu/bin/../lib/gcc/nios2-elf/4.1.2/../../../../nios2-elf/lib/mno-hw-mul/libc.a(lib_a-dtoa.o) (__floatsidf)
/opt/altera/nios2eds/bin/gnu/H-i686-pc-linux-gnu/bin/../lib/gcc/nios2-elf/4.1.2/mno-hw-mul/libgcc.a(_df_to_si.o)
                              /opt/altera/nios2eds/bin/gnu/H-i686-pc-linux-gnu/bin/../lib/gcc/nios2-elf/4.1.2/../../../../nios2-elf/lib/mno-hw-mul/libc.a(lib_a-dtoa.o) (__fixdfsi)
/opt/altera/nios2eds/bin/gnu/H-i686-pc-linux-gnu/bin/../lib/gcc/nios2-elf/4.1.2/mno-hw-mul/libgcc.a(_thenan_df.o)
                              /opt/altera/nios2eds/bin/gnu/H-i686-pc-linux-gnu/bin/../lib/gcc/nios2-elf/4.1.2/mno-hw-mul/libgcc.a(_addsub_df.o) (__thenan_df)
/opt/altera/nios2eds/bin/gnu/H-i686-pc-linux-gnu/bin/../lib/gcc/nios2-elf/4.1.2/mno-hw-mul/libgcc.a(_usi_to_df.o)
                              /opt/altera/nios2eds/bin/gnu/H-i686-pc-linux-gnu/bin/../lib/gcc/nios2-elf/4.1.2/../../../../nios2-elf/lib/mno-hw-mul/libc.a(lib_a-dtoa.o) (__floatunsidf)
/opt/altera/nios2eds/bin/gnu/H-i686-pc-linux-gnu/bin/../lib/gcc/nios2-elf/4.1.2/mno-hw-mul/libgcc.a(lib2-mul.o)
                              /opt/altera/nios2eds/bin/gnu/H-i686-pc-linux-gnu/bin/../lib/gcc/nios2-elf/4.1.2/../../../../nios2-elf/lib/mno-hw-mul/libc.a(lib_a-fwrite.o) (__mulsi3)
/opt/altera/nios2eds/bin/gnu/H-i686-pc-linux-gnu/bin/../lib/gcc/nios2-elf/4.1.2/mno-hw-mul/libgcc.a(_muldi3.o)
                              /opt/altera/nios2eds/bin/gnu/H-i686-pc-linux-gnu/bin/../lib/gcc/nios2-elf/4.1.2/mno-hw-mul/libgcc.a(_mul_df.o) (__muldi3)
/opt/altera/nios2eds/bin/gnu/H-i686-pc-linux-gnu/bin/../lib/gcc/nios2-elf/4.1.2/mno-hw-mul/libgcc.a(_clz.o)
                              /opt/altera/nios2eds/bin/gnu/H-i686-pc-linux-gnu/bin/../lib/gcc/nios2-elf/4.1.2/mno-hw-mul/libgcc.a(_udivdi3.o) (__clz_tab)
/opt/altera/nios2eds/bin/gnu/H-i686-pc-linux-gnu/bin/../lib/gcc/nios2-elf/4.1.2/mno-hw-mul/libgcc.a(_clzsi2.o)
                              /opt/altera/nios2eds/bin/gnu/H-i686-pc-linux-gnu/bin/../lib/gcc/nios2-elf/4.1.2/mno-hw-mul/libgcc.a(_si_to_df.o) (__clzsi2)
/opt/altera/nios2eds/bin/gnu/H-i686-pc-linux-gnu/bin/../lib/gcc/nios2-elf/4.1.2/mno-hw-mul/libgcc.a(_pack_df.o)
                              /opt/altera/nios2eds/bin/gnu/H-i686-pc-linux-gnu/bin/../lib/gcc/nios2-elf/4.1.2/mno-hw-mul/libgcc.a(_addsub_df.o) (__pack_d)
/opt/altera/nios2eds/bin/gnu/H-i686-pc-linux-gnu/bin/../lib/gcc/nios2-elf/4.1.2/mno-hw-mul/libgcc.a(_unpack_df.o)
                              /opt/altera/nios2eds/bin/gnu/H-i686-pc-linux-gnu/bin/../lib/gcc/nios2-elf/4.1.2/mno-hw-mul/libgcc.a(_addsub_df.o) (__unpack_d)
/opt/altera/nios2eds/bin/gnu/H-i686-pc-linux-gnu/bin/../lib/gcc/nios2-elf/4.1.2/mno-hw-mul/libgcc.a(_fpcmp_parts_df.o)
                              /opt/altera/nios2eds/bin/gnu/H-i686-pc-linux-gnu/bin/../lib/gcc/nios2-elf/4.1.2/mno-hw-mul/libgcc.a(_eq_df.o) (__fpcmp_parts_d)
../de1_ucosii_tutorial_bsp//libucosii_bsp.a(alt_close.o)
                              /opt/altera/nios2eds/bin/gnu/H-i686-pc-linux-gnu/bin/../lib/gcc/nios2-elf/4.1.2/../../../../nios2-elf/lib/mno-hw-mul/libc.a(lib_a-closer.o) (close)
../de1_ucosii_tutorial_bsp//libucosii_bsp.a(alt_dev.o)
                              ../de1_ucosii_tutorial_bsp//libucosii_bsp.a(alt_close.o) (alt_fd_list)
../de1_ucosii_tutorial_bsp//libucosii_bsp.a(alt_errno.o)
                              ../de1_ucosii_tutorial_bsp//libucosii_bsp.a(alt_close.o) (alt_errno)
../de1_ucosii_tutorial_bsp//libucosii_bsp.a(alt_exit.o)
                              /opt/altera/nios2eds/bin/gnu/H-i686-pc-linux-gnu/bin/../lib/gcc/nios2-elf/4.1.2/../../../../nios2-elf/lib/mno-hw-mul/libc.a(lib_a-exit.o) (_exit)
../de1_ucosii_tutorial_bsp//libucosii_bsp.a(alt_fstat.o)
                              /opt/altera/nios2eds/bin/gnu/H-i686-pc-linux-gnu/bin/../lib/gcc/nios2-elf/4.1.2/../../../../nios2-elf/lib/mno-hw-mul/libc.a(lib_a-fstatr.o) (fstat)
../de1_ucosii_tutorial_bsp//libucosii_bsp.a(alt_isatty.o)
                              /opt/altera/nios2eds/bin/gnu/H-i686-pc-linux-gnu/bin/../lib/gcc/nios2-elf/4.1.2/../../../../nios2-elf/lib/mno-hw-mul/libc.a(lib_a-isattyr.o) (isatty)
../de1_ucosii_tutorial_bsp//libucosii_bsp.a(alt_load.o)
                              ../de1_ucosii_tutorial_bsp//obj/HAL/src/crt0.o (alt_load)
../de1_ucosii_tutorial_bsp//libucosii_bsp.a(alt_lseek.o)
                              /opt/altera/nios2eds/bin/gnu/H-i686-pc-linux-gnu/bin/../lib/gcc/nios2-elf/4.1.2/../../../../nios2-elf/lib/mno-hw-mul/libc.a(lib_a-lseekr.o) (lseek)
../de1_ucosii_tutorial_bsp//libucosii_bsp.a(alt_main.o)
                              ../de1_ucosii_tutorial_bsp//obj/HAL/src/crt0.o (alt_main)
../de1_ucosii_tutorial_bsp//libucosii_bsp.a(alt_read.o)
                              /opt/altera/nios2eds/bin/gnu/H-i686-pc-linux-gnu/bin/../lib/gcc/nios2-elf/4.1.2/../../../../nios2-elf/lib/mno-hw-mul/libc.a(lib_a-readr.o) (read)
../de1_ucosii_tutorial_bsp//libucosii_bsp.a(alt_release_fd.o)
                              ../de1_ucosii_tutorial_bsp//libucosii_bsp.a(alt_close.o) (alt_release_fd)
../de1_ucosii_tutorial_bsp//libucosii_bsp.a(alt_sbrk.o)
                              /opt/altera/nios2eds/bin/gnu/H-i686-pc-linux-gnu/bin/../lib/gcc/nios2-elf/4.1.2/../../../../nios2-elf/lib/mno-hw-mul/libc.a(lib_a-sbrkr.o) (sbrk)
../de1_ucosii_tutorial_bsp//libucosii_bsp.a(alt_write.o)
                              /opt/altera/nios2eds/bin/gnu/H-i686-pc-linux-gnu/bin/../lib/gcc/nios2-elf/4.1.2/../../../../nios2-elf/lib/mno-hw-mul/libc.a(lib_a-writer.o) (write)
../de1_ucosii_tutorial_bsp//libucosii_bsp.a(alt_env_lock.o)
                              ../de1_ucosii_tutorial_bsp//libucosii_bsp.a(alt_main.o) (alt_envsem)
../de1_ucosii_tutorial_bsp//libucosii_bsp.a(alt_malloc_lock.o)
                              /opt/altera/nios2eds/bin/gnu/H-i686-pc-linux-gnu/bin/../lib/gcc/nios2-elf/4.1.2/../../../../nios2-elf/lib/mno-hw-mul/libc.a(lib_a-freer.o) (__malloc_lock)
../de1_ucosii_tutorial_bsp//libucosii_bsp.a(os_core.o)
                              ../de1_ucosii_tutorial_bsp//libucosii_bsp.a(alt_main.o) (OSInit)
../de1_ucosii_tutorial_bsp//libucosii_bsp.a(os_dbg.o)
                              ../de1_ucosii_tutorial_bsp//libucosii_bsp.a(os_core.o) (OSDebugInit)
../de1_ucosii_tutorial_bsp//libucosii_bsp.a(os_flag.o)
                              ../de1_ucosii_tutorial_bsp//libucosii_bsp.a(os_core.o) (OS_FlagInit)
../de1_ucosii_tutorial_bsp//libucosii_bsp.a(os_mem.o)
                              ../de1_ucosii_tutorial_bsp//libucosii_bsp.a(os_core.o) (OS_MemInit)
../de1_ucosii_tutorial_bsp//libucosii_bsp.a(os_q.o)
                              ../de1_ucosii_tutorial_bsp//libucosii_bsp.a(os_core.o) (OS_QInit)
../de1_ucosii_tutorial_bsp//libucosii_bsp.a(os_sem.o)
                              obj/default/producer_consumer.o (OSSemCreate)
../de1_ucosii_tutorial_bsp//libucosii_bsp.a(os_task.o)
                              obj/default/producer_consumer.o (OSTaskCreate)
../de1_ucosii_tutorial_bsp//libucosii_bsp.a(os_time.o)
                              ../de1_ucosii_tutorial_bsp//libucosii_bsp.a(os_core.o) (OSTimeDly)
../de1_ucosii_tutorial_bsp//libucosii_bsp.a(alt_sys_init.o)
                              ../de1_ucosii_tutorial_bsp//libucosii_bsp.a(alt_main.o) (alt_irq_init)
../de1_ucosii_tutorial_bsp//libucosii_bsp.a(altera_avalon_jtag_uart_fd.o)
                              ../de1_ucosii_tutorial_bsp//libucosii_bsp.a(alt_sys_init.o) (altera_avalon_jtag_uart_read_fd)
../de1_ucosii_tutorial_bsp//libucosii_bsp.a(altera_avalon_jtag_uart_init.o)
                              ../de1_ucosii_tutorial_bsp//libucosii_bsp.a(alt_sys_init.o) (altera_avalon_jtag_uart_init)
../de1_ucosii_tutorial_bsp//libucosii_bsp.a(altera_avalon_jtag_uart_ioctl.o)
                              ../de1_ucosii_tutorial_bsp//libucosii_bsp.a(altera_avalon_jtag_uart_fd.o) (altera_avalon_jtag_uart_ioctl)
../de1_ucosii_tutorial_bsp//libucosii_bsp.a(altera_avalon_jtag_uart_read.o)
                              ../de1_ucosii_tutorial_bsp//libucosii_bsp.a(altera_avalon_jtag_uart_fd.o) (altera_avalon_jtag_uart_read)
../de1_ucosii_tutorial_bsp//libucosii_bsp.a(altera_avalon_jtag_uart_write.o)
                              ../de1_ucosii_tutorial_bsp//libucosii_bsp.a(altera_avalon_jtag_uart_fd.o) (altera_avalon_jtag_uart_write)
../de1_ucosii_tutorial_bsp//libucosii_bsp.a(altera_avalon_timer_sc.o)
                              ../de1_ucosii_tutorial_bsp//libucosii_bsp.a(alt_sys_init.o) (alt_avalon_timer_sc_init)
../de1_ucosii_tutorial_bsp//libucosii_bsp.a(alt_alarm_start.o)
                              ../de1_ucosii_tutorial_bsp//libucosii_bsp.a(altera_avalon_jtag_uart_init.o) (alt_alarm_start)
../de1_ucosii_tutorial_bsp//libucosii_bsp.a(alt_dcache_flush_all.o)
                              ../de1_ucosii_tutorial_bsp//libucosii_bsp.a(alt_load.o) (alt_dcache_flush_all)
../de1_ucosii_tutorial_bsp//libucosii_bsp.a(alt_dev_llist_insert.o)
                              ../de1_ucosii_tutorial_bsp//libucosii_bsp.a(alt_sys_init.o) (alt_dev_llist_insert)
../de1_ucosii_tutorial_bsp//libucosii_bsp.a(alt_do_ctors.o)
                              ../de1_ucosii_tutorial_bsp//libucosii_bsp.a(alt_main.o) (_do_ctors)
../de1_ucosii_tutorial_bsp//libucosii_bsp.a(alt_do_dtors.o)
                              ../de1_ucosii_tutorial_bsp//libucosii_bsp.a(alt_main.o) (_do_dtors)
../de1_ucosii_tutorial_bsp//libucosii_bsp.a(alt_icache_flush_all.o)
                              ../de1_ucosii_tutorial_bsp//libucosii_bsp.a(alt_load.o) (alt_icache_flush_all)
../de1_ucosii_tutorial_bsp//libucosii_bsp.a(alt_iic.o)
                              ../de1_ucosii_tutorial_bsp//libucosii_bsp.a(altera_avalon_jtag_uart_init.o) (alt_ic_isr_register)
../de1_ucosii_tutorial_bsp//libucosii_bsp.a(alt_iic_isr_register.o)
                              ../de1_ucosii_tutorial_bsp//libucosii_bsp.a(alt_iic.o) (alt_iic_isr_register)
../de1_ucosii_tutorial_bsp//libucosii_bsp.a(alt_io_redirect.o)
                              ../de1_ucosii_tutorial_bsp//libucosii_bsp.a(alt_main.o) (alt_io_redirect)
../de1_ucosii_tutorial_bsp//libucosii_bsp.a(alt_irq_entry.o)
                              ../de1_ucosii_tutorial_bsp//libucosii_bsp.a(alt_iic_isr_register.o) (alt_irq_entry)
../de1_ucosii_tutorial_bsp//libucosii_bsp.a(alt_irq_handler.o)
                              ../de1_ucosii_tutorial_bsp//libucosii_bsp.a(alt_iic_isr_register.o) (alt_irq_handler)
../de1_ucosii_tutorial_bsp//libucosii_bsp.a(alt_irq_vars.o)
                              ../de1_ucosii_tutorial_bsp//libucosii_bsp.a(alt_iic.o) (alt_irq_active)
../de1_ucosii_tutorial_bsp//libucosii_bsp.a(alt_open.o)
                              ../de1_ucosii_tutorial_bsp//libucosii_bsp.a(alt_io_redirect.o) (open)
../de1_ucosii_tutorial_bsp//libucosii_bsp.a(alt_tick.o)
                              ../de1_ucosii_tutorial_bsp//libucosii_bsp.a(altera_avalon_jtag_uart_init.o) (_alt_tick_rate)
../de1_ucosii_tutorial_bsp//libucosii_bsp.a(altera_nios2_qsys_irq.o)
                              ../de1_ucosii_tutorial_bsp//libucosii_bsp.a(alt_sys_init.o) (altera_nios2_qsys_irq_init)
../de1_ucosii_tutorial_bsp//libucosii_bsp.a(os_cpu_a.o)
                              ../de1_ucosii_tutorial_bsp//libucosii_bsp.a(os_core.o) (OSIntCtxSw)
../de1_ucosii_tutorial_bsp//libucosii_bsp.a(os_cpu_c.o)
                              ../de1_ucosii_tutorial_bsp//libucosii_bsp.a(os_task.o) (OSTaskStkInit)
../de1_ucosii_tutorial_bsp//libucosii_bsp.a(alt_exception_entry.o)
                              ../de1_ucosii_tutorial_bsp//libucosii_bsp.a(alt_irq_entry.o) (alt_exception)
../de1_ucosii_tutorial_bsp//libucosii_bsp.a(alt_find_dev.o)
                              ../de1_ucosii_tutorial_bsp//libucosii_bsp.a(alt_open.o) (alt_find_dev)
../de1_ucosii_tutorial_bsp//libucosii_bsp.a(alt_find_file.o)
                              ../de1_ucosii_tutorial_bsp//libucosii_bsp.a(alt_open.o) (alt_find_file)
../de1_ucosii_tutorial_bsp//libucosii_bsp.a(alt_get_fd.o)
                              ../de1_ucosii_tutorial_bsp//libucosii_bsp.a(alt_open.o) (alt_get_fd)
/opt/altera/nios2eds/bin/gnu/H-i686-pc-linux-gnu/bin/../lib/gcc/nios2-elf/4.1.2/../../../../nios2-elf/lib/mno-hw-mul/libc.a(lib_a-atexit.o)
                              ../de1_ucosii_tutorial_bsp//libucosii_bsp.a(alt_main.o) (atexit)
/opt/altera/nios2eds/bin/gnu/H-i686-pc-linux-gnu/bin/../lib/gcc/nios2-elf/4.1.2/../../../../nios2-elf/lib/mno-hw-mul/libc.a(lib_a-memcmp.o)
                              ../de1_ucosii_tutorial_bsp//libucosii_bsp.a(alt_find_dev.o) (memcmp)
/opt/altera/nios2eds/bin/gnu/H-i686-pc-linux-gnu/bin/../lib/gcc/nios2-elf/4.1.2/../../../../nios2-elf/lib/mno-hw-mul/libc.a(lib_a-__atexit.o)
                              /opt/altera/nios2eds/bin/gnu/H-i686-pc-linux-gnu/bin/../lib/gcc/nios2-elf/4.1.2/../../../../nios2-elf/lib/mno-hw-mul/libc.a(lib_a-atexit.o) (__register_exitproc)

Allocating common symbols
Common symbol       size              file

alt_irq             0x100             ../de1_ucosii_tutorial_bsp//libucosii_bsp.a(alt_irq_handler.o)
producer_stk        0x2000            obj/default/producer_consumer.o
OSLockNesting       0x1               ../de1_ucosii_tutorial_bsp//libucosii_bsp.a(os_core.o)
OSRunning           0x1               ../de1_ucosii_tutorial_bsp//libucosii_bsp.a(os_core.o)
OSIdleCtr           0x4               ../de1_ucosii_tutorial_bsp//libucosii_bsp.a(os_core.o)
OSPrioHighRdy       0x1               ../de1_ucosii_tutorial_bsp//libucosii_bsp.a(os_core.o)
errno               0x4               /opt/altera/nios2eds/bin/gnu/H-i686-pc-linux-gnu/bin/../lib/gcc/nios2-elf/4.1.2/../../../../nios2-elf/lib/mno-hw-mul/libc.a(lib_a-int_errno.o)
alt_heapsem         0x4               ../de1_ucosii_tutorial_bsp//libucosii_bsp.a(alt_malloc_lock.o)
OSFlagTbl           0x370             ../de1_ucosii_tutorial_bsp//libucosii_bsp.a(os_core.o)
OSPrioCur           0x1               ../de1_ucosii_tutorial_bsp//libucosii_bsp.a(os_core.o)
OSTCBList           0x4               ../de1_ucosii_tutorial_bsp//libucosii_bsp.a(os_core.o)
alt_fd_list_lock    0x4               ../de1_ucosii_tutorial_bsp//libucosii_bsp.a(alt_dev.o)
OSMemTbl            0xc30             ../de1_ucosii_tutorial_bsp//libucosii_bsp.a(os_core.o)
OSTickStepState     0x1               ../de1_ucosii_tutorial_bsp//libucosii_bsp.a(os_core.o)
OSTaskStatStk       0x800             ../de1_ucosii_tutorial_bsp//libucosii_bsp.a(os_core.o)
OSCtxSwCtr          0x4               ../de1_ucosii_tutorial_bsp//libucosii_bsp.a(os_core.o)
OSIdleCtrMax        0x4               ../de1_ucosii_tutorial_bsp//libucosii_bsp.a(os_core.o)
OSTCBFreeList       0x4               ../de1_ucosii_tutorial_bsp//libucosii_bsp.a(os_core.o)
OSCPUUsage          0x1               ../de1_ucosii_tutorial_bsp//libucosii_bsp.a(os_core.o)
OSTaskCtr           0x1               ../de1_ucosii_tutorial_bsp//libucosii_bsp.a(os_core.o)
buffer_sem          0x4               obj/default/producer_consumer.o
consumer_stk        0x2000            obj/default/producer_consumer.o
OSMemFreeList       0x4               ../de1_ucosii_tutorial_bsp//libucosii_bsp.a(os_core.o)
OSQTbl              0x1e0             ../de1_ucosii_tutorial_bsp//libucosii_bsp.a(os_core.o)
OSTCBHighRdy        0x4               ../de1_ucosii_tutorial_bsp//libucosii_bsp.a(os_core.o)
OSQFreeList         0x4               ../de1_ucosii_tutorial_bsp//libucosii_bsp.a(os_core.o)
OSRdyGrp            0x1               ../de1_ucosii_tutorial_bsp//libucosii_bsp.a(os_core.o)
_atexit0            0x190             /opt/altera/nios2eds/bin/gnu/H-i686-pc-linux-gnu/bin/../lib/gcc/nios2-elf/4.1.2/../../../../nios2-elf/lib/mno-hw-mul/libc.a(lib_a-atexit.o)
OSRdyTbl            0x3               ../de1_ucosii_tutorial_bsp//libucosii_bsp.a(os_core.o)
OSEventFreeList     0x4               ../de1_ucosii_tutorial_bsp//libucosii_bsp.a(os_core.o)
OSIntNesting        0x1               ../de1_ucosii_tutorial_bsp//libucosii_bsp.a(os_core.o)
OSTCBCur            0x4               ../de1_ucosii_tutorial_bsp//libucosii_bsp.a(os_core.o)
OSTime              0x4               ../de1_ucosii_tutorial_bsp//libucosii_bsp.a(os_core.o)
OSTaskIdleStk       0x800             ../de1_ucosii_tutorial_bsp//libucosii_bsp.a(os_core.o)
OSEventTbl          0xb40             ../de1_ucosii_tutorial_bsp//libucosii_bsp.a(os_core.o)
OSTCBTbl            0x510             ../de1_ucosii_tutorial_bsp//libucosii_bsp.a(os_core.o)
OSFlagFreeList      0x4               ../de1_ucosii_tutorial_bsp//libucosii_bsp.a(os_core.o)
OSStatRdy           0x1               ../de1_ucosii_tutorial_bsp//libucosii_bsp.a(os_core.o)
OSTCBPrioTbl        0x54              ../de1_ucosii_tutorial_bsp//libucosii_bsp.a(os_core.o)
alt_envsem          0x4               ../de1_ucosii_tutorial_bsp//libucosii_bsp.a(alt_env_lock.o)
OSIdleCtrRun        0x4               ../de1_ucosii_tutorial_bsp//libucosii_bsp.a(os_core.o)
ringBuffer          0x14              obj/default/producer_consumer.o

Memory Configuration

Name             Origin             Length             Attributes
reset            0x00800000         0x00000020
sdram_0          0x00800020         0x007fffe0
onchip_memory2_0 0x01001000         0x00001000
*default*        0x00000000         0xffffffff

Linker script and memory map

LOAD ../de1_ucosii_tutorial_bsp//obj/HAL/src/crt0.o
LOAD obj/default/alt_ucosii_simple_error_check.o
LOAD obj/default/producer_consumer.o
LOAD /opt/altera/nios2eds/bin/gnu/H-i686-pc-linux-gnu/bin/../lib/gcc/nios2-elf/4.1.2/../../../../nios2-elf/lib/mno-hw-mul/libstdc++.a
LOAD /opt/altera/nios2eds/bin/gnu/H-i686-pc-linux-gnu/bin/../lib/gcc/nios2-elf/4.1.2/../../../../nios2-elf/lib/mno-hw-mul/libm.a
LOAD /opt/altera/nios2eds/bin/gnu/H-i686-pc-linux-gnu/bin/../lib/gcc/nios2-elf/4.1.2/mno-hw-mul/libgcc.a
START GROUP
LOAD /opt/altera/nios2eds/bin/gnu/H-i686-pc-linux-gnu/bin/../lib/gcc/nios2-elf/4.1.2/../../../../nios2-elf/lib/mno-hw-mul/libc.a
LOAD /opt/altera/nios2eds/bin/gnu/H-i686-pc-linux-gnu/bin/../lib/gcc/nios2-elf/4.1.2/mno-hw-mul/libgcc.a
LOAD ../de1_ucosii_tutorial_bsp//libucosii_bsp.a
END GROUP
LOAD /opt/altera/nios2eds/bin/gnu/H-i686-pc-linux-gnu/bin/../lib/gcc/nios2-elf/4.1.2/mno-hw-mul/libgcc.a
                0x00800000                __alt_mem_sdram_0 = 0x800000
                0x01001000                __alt_mem_onchip_memory2_0 = 0x1001000

.entry          0x00800000       0x20
 *(.entry)
 .entry         0x00800000       0x20 ../de1_ucosii_tutorial_bsp//obj/HAL/src/crt0.o
                0x00800000                __reset

.exceptions     0x00800020      0x19c
                0x00800020                PROVIDE (__ram_exceptions_start, ABSOLUTE (.))
                0x00800020                . = ALIGN (0x20)
 *(.irq)
 *(.exceptions.entry.label)
 .exceptions.entry.label
                0x00800020        0x0 ../de1_ucosii_tutorial_bsp//libucosii_bsp.a(alt_irq_entry.o)
                0x00800020                alt_irq_entry
 .exceptions.entry.label
                0x00800020        0x0 ../de1_ucosii_tutorial_bsp//libucosii_bsp.a(alt_exception_entry.o)
                0x00800020                alt_exception
 *(.exceptions.entry.user)
 *(.exceptions.entry)
 .exceptions.entry
                0x00800020       0x54 ../de1_ucosii_tutorial_bsp//libucosii_bsp.a(alt_exception_entry.o)
 *(.exceptions.irqtest.user)
 *(.exceptions.irqtest)
 .exceptions.irqtest
                0x00800074       0x10 ../de1_ucosii_tutorial_bsp//libucosii_bsp.a(alt_irq_entry.o)
 *(.exceptions.irqhandler.user)
 *(.exceptions.irqhandler)
 .exceptions.irqhandler
                0x00800084        0x4 ../de1_ucosii_tutorial_bsp//libucosii_bsp.a(alt_irq_entry.o)
 *(.exceptions.irqreturn.user)
 *(.exceptions.irqreturn)
 .exceptions.irqreturn
                0x00800088        0x4 ../de1_ucosii_tutorial_bsp//libucosii_bsp.a(alt_irq_entry.o)
 *(.exceptions.notirq.label)
 .exceptions.notirq.label
                0x0080008c        0x0 ../de1_ucosii_tutorial_bsp//libucosii_bsp.a(alt_irq_entry.o)
 *(.exceptions.notirq.user)
 *(.exceptions.notirq)
 .exceptions.notirq
                0x0080008c        0x8 ../de1_ucosii_tutorial_bsp//libucosii_bsp.a(alt_exception_entry.o)
 *(.exceptions.soft.user)
 *(.exceptions.soft)
 *(.exceptions.unknown.user)
 *(.exceptions.unknown)
 .exceptions.unknown
                0x00800094        0x4 ../de1_ucosii_tutorial_bsp//libucosii_bsp.a(alt_exception_entry.o)
 *(.exceptions.exit.label)
 .exceptions.exit.label
                0x00800098        0x0 ../de1_ucosii_tutorial_bsp//libucosii_bsp.a(alt_irq_entry.o)
 .exceptions.exit.label
                0x00800098        0x0 ../de1_ucosii_tutorial_bsp//libucosii_bsp.a(alt_exception_entry.o)
 *(.exceptions.exit.user)
 *(.exceptions.exit)
 .exceptions.exit
                0x00800098       0x54 ../de1_ucosii_tutorial_bsp//libucosii_bsp.a(alt_exception_entry.o)
 *(.exceptions)
 .exceptions    0x008000ec       0xd0 ../de1_ucosii_tutorial_bsp//libucosii_bsp.a(alt_irq_handler.o)
                0x008000ec                alt_irq_handler
                0x008001bc                PROVIDE (__ram_exceptions_end, ABSOLUTE (.))
                0x00800020                PROVIDE (__flash_exceptions_start, LOADADDR (.exceptions))

.text           0x008001bc    0x16544
                0x008001bc                PROVIDE (stext, ABSOLUTE (.))
 *(.interp)
 *(.hash)
 *(.dynsym)
 *(.dynstr)
 *(.gnu.version)
 *(.gnu.version_d)
 *(.gnu.version_r)
 *(.rel.init)
 *(.rela.init)
 *(.rel.text .rel.text.* .rel.gnu.linkonce.t.*)
 *(.rela.text .rela.text.* .rela.gnu.linkonce.t.*)
 *(.rel.fini)
 *(.rela.fini)
 *(.rel.rodata .rel.rodata.* .rel.gnu.linkonce.r.*)
 *(.rela.rodata .rela.rodata.* .rela.gnu.linkonce.r.*)
 *(.rel.data .rel.data.* .rel.gnu.linkonce.d.*)
 *(.rela.data .rela.data.* .rela.gnu.linkonce.d.*)
 *(.rel.tdata .rel.tdata.* .rel.gnu.linkonce.td.*)
 *(.rela.tdata .rela.tdata.* .rela.gnu.linkonce.td.*)
 *(.rel.tbss .rel.tbss.* .rel.gnu.linkonce.tb.*)
 *(.rela.tbss .rela.tbss.* .rela.gnu.linkonce.tb.*)
 *(.rel.ctors)
 *(.rela.ctors)
 *(.rel.dtors)
 *(.rela.dtors)
 *(.rel.got)
 *(.rela.got)
 *(.rel.sdata .rel.sdata.* .rel.gnu.linkonce.s.*)
 *(.rela.sdata .rela.sdata.* .rela.gnu.linkonce.s.*)
 *(.rel.sbss .rel.sbss.* .rel.gnu.linkonce.sb.*)
 *(.rela.sbss .rela.sbss.* .rela.gnu.linkonce.sb.*)
 *(.rel.sdata2 .rel.sdata2.* .rel.gnu.linkonce.s2.*)
 *(.rela.sdata2 .rela.sdata2.* .rela.gnu.linkonce.s2.*)
 *(.rel.sbss2 .rel.sbss2.* .rel.gnu.linkonce.sb2.*)
 *(.rela.sbss2 .rela.sbss2.* .rela.gnu.linkonce.sb2.*)
 *(.rel.bss .rel.bss.* .rel.gnu.linkonce.b.*)
 *(.rela.bss .rela.bss.* .rela.gnu.linkonce.b.*)
 *(.rel.plt)
 *(.rela.plt)
 *(.rel.dyn)
 *(.init)
 *(.plt)
 *(.text .stub .text.* .gnu.linkonce.t.*)
 .text          0x008001bc       0x3c ../de1_ucosii_tutorial_bsp//obj/HAL/src/crt0.o
                0x008001bc                _start
 .text          0x008001f8      0x4f0 obj/default/alt_ucosii_simple_error_check.o
                0x008001f8                alt_ucosii_check_return_code
                0x0080023c                alt_ucosii_simple_error_handler
 .text          0x008006e8      0xbf0 obj/default/producer_consumer.o
                0x008006e8                lightLEDs
                0x008009e0                incrementBCD
                0x00800c74                sevenSegEncoder
                0x00800d68                displayDigits
                0x00800f00                consumer
                0x00801068                producer
                0x00801218                main
 .text          0x008012d8      0x14c /opt/altera/nios2eds/bin/gnu/H-i686-pc-linux-gnu/bin/../lib/gcc/nios2-elf/4.1.2/mno-hw-mul/libgcc.a(lib2-divmod.o)
                0x00801354                __divsi3
                0x008013b4                __modsi3
                0x00801414                __udivsi3
                0x0080141c                __umodsi3
 .text          0x00801424       0x38 /opt/altera/nios2eds/bin/gnu/H-i686-pc-linux-gnu/bin/../lib/gcc/nios2-elf/4.1.2/../../../../nios2-elf/lib/mno-hw-mul/libc.a(lib_a-exit.o)
                0x00801424                exit
 .text          0x0080145c       0x60 /opt/altera/nios2eds/bin/gnu/H-i686-pc-linux-gnu/bin/../lib/gcc/nios2-elf/4.1.2/../../../../nios2-elf/lib/mno-hw-mul/libc.a(lib_a-fprintf.o)
                0x0080145c                fprintf
                0x00801488                _fprintf_r
 .text          0x008014bc       0xec /opt/altera/nios2eds/bin/gnu/H-i686-pc-linux-gnu/bin/../lib/gcc/nios2-elf/4.1.2/../../../../nios2-elf/lib/mno-hw-mul/libc.a(lib_a-fwrite.o)
                0x008014bc                _fwrite_r
                0x00801568                fwrite
 .text          0x008015a8        0x0 /opt/altera/nios2eds/bin/gnu/H-i686-pc-linux-gnu/bin/../lib/gcc/nios2-elf/4.1.2/../../../../nios2-elf/lib/mno-hw-mul/libc.a(lib_a-impure.o)
 .text          0x008015a8       0x78 /opt/altera/nios2eds/bin/gnu/H-i686-pc-linux-gnu/bin/../lib/gcc/nios2-elf/4.1.2/../../../../nios2-elf/lib/mno-hw-mul/libc.a(lib_a-printf.o)
                0x008015a8                printf
                0x008015ec                _printf_r
 .text          0x00801620       0xb4 /opt/altera/nios2eds/bin/gnu/H-i686-pc-linux-gnu/bin/../lib/gcc/nios2-elf/4.1.2/../../../../nios2-elf/lib/mno-hw-mul/libc.a(lib_a-puts.o)
                0x00801620                _puts_r
                0x008016c0                puts
 .text          0x008016d4       0x74 /opt/altera/nios2eds/bin/gnu/H-i686-pc-linux-gnu/bin/../lib/gcc/nios2-elf/4.1.2/../../../../nios2-elf/lib/mno-hw-mul/libc.a(lib_a-strlen.o)
                0x008016d4                strlen
 .text          0x00801748     0x1f40 /opt/altera/nios2eds/bin/gnu/H-i686-pc-linux-gnu/bin/../lib/gcc/nios2-elf/4.1.2/../../../../nios2-elf/lib/mno-hw-mul/libc.a(lib_a-vfprintf.o)
                0x008017a0                ___vfprintf_internal_r
                0x00803664                __vfprintf_internal
 .text          0x00803688      0x13c /opt/altera/nios2eds/bin/gnu/H-i686-pc-linux-gnu/bin/../lib/gcc/nios2-elf/4.1.2/../../../../nios2-elf/lib/mno-hw-mul/libc.a(lib_a-wsetup.o)
                0x00803688                __swsetup_r
 .text          0x008037c4      0x1b4 /opt/altera/nios2eds/bin/gnu/H-i686-pc-linux-gnu/bin/../lib/gcc/nios2-elf/4.1.2/../../../../nios2-elf/lib/mno-hw-mul/libc.a(lib_a-__call_atexit.o)
                0x008037c8                __call_exitprocs
 .text          0x00803978     0x17f8 /opt/altera/nios2eds/bin/gnu/H-i686-pc-linux-gnu/bin/../lib/gcc/nios2-elf/4.1.2/../../../../nios2-elf/lib/mno-hw-mul/libc.a(lib_a-dtoa.o)
                0x00803bbc                _dtoa_r
 .text          0x00805170      0x230 /opt/altera/nios2eds/bin/gnu/H-i686-pc-linux-gnu/bin/../lib/gcc/nios2-elf/4.1.2/../../../../nios2-elf/lib/mno-hw-mul/libc.a(lib_a-fflush.o)
                0x00805170                _fflush_r
                0x0080536c                fflush
 .text          0x008053a0      0x2f4 /opt/altera/nios2eds/bin/gnu/H-i686-pc-linux-gnu/bin/../lib/gcc/nios2-elf/4.1.2/../../../../nios2-elf/lib/mno-hw-mul/libc.a(lib_a-findfp.o)
                0x008053f8                __sfp_lock_acquire
                0x008053fc                __sfp_lock_release
                0x00805400                __sinit_lock_acquire
                0x00805404                __sinit_lock_release
                0x00805408                __sinit
                0x008054bc                __fp_unlock_all
                0x008054d4                __fp_lock_all
                0x008054ec                _cleanup_r
                0x008054f8                _cleanup
                0x00805508                __sfmoreglue
                0x008055a4                __sfp
 .text          0x00805694      0x440 /opt/altera/nios2eds/bin/gnu/H-i686-pc-linux-gnu/bin/../lib/gcc/nios2-elf/4.1.2/../../../../nios2-elf/lib/mno-hw-mul/libc.a(lib_a-freer.o)
                0x00805694                _malloc_trim_r
                0x008057c0                _free_r
 .text          0x00805ad4      0x49c /opt/altera/nios2eds/bin/gnu/H-i686-pc-linux-gnu/bin/../lib/gcc/nios2-elf/4.1.2/../../../../nios2-elf/lib/mno-hw-mul/libc.a(lib_a-fvwrite.o)
                0x00805ad4                __sfvwrite_r
 .text          0x00805f70      0x180 /opt/altera/nios2eds/bin/gnu/H-i686-pc-linux-gnu/bin/../lib/gcc/nios2-elf/4.1.2/../../../../nios2-elf/lib/mno-hw-mul/libc.a(lib_a-fwalk.o)
                0x00805f70                _fwalk_reent
                0x00806038                _fwalk
 .text          0x008060f0       0xc4 /opt/altera/nios2eds/bin/gnu/H-i686-pc-linux-gnu/bin/../lib/gcc/nios2-elf/4.1.2/../../../../nios2-elf/lib/mno-hw-mul/libc.a(lib_a-locale.o)
                0x008060f0                __locale_charset
                0x008060f8                _localeconv_r
                0x00806104                localeconv
                0x00806114                _setlocale_r
                0x00806198                setlocale
 .text          0x008061b4      0x194 /opt/altera/nios2eds/bin/gnu/H-i686-pc-linux-gnu/bin/../lib/gcc/nios2-elf/4.1.2/../../../../nios2-elf/lib/mno-hw-mul/libc.a(lib_a-makebuf.o)
                0x008061b4                __smakebuf_r
 .text          0x00806348      0x740 /opt/altera/nios2eds/bin/gnu/H-i686-pc-linux-gnu/bin/../lib/gcc/nios2-elf/4.1.2/../../../../nios2-elf/lib/mno-hw-mul/libc.a(lib_a-mallocr.o)
                0x00806348                _malloc_r
 .text          0x00806a88       0xe4 /opt/altera/nios2eds/bin/gnu/H-i686-pc-linux-gnu/bin/../lib/gcc/nios2-elf/4.1.2/../../../../nios2-elf/lib/mno-hw-mul/libc.a(lib_a-memchr.o)
                0x00806a88                memchr
 .text          0x00806b6c       0xa0 /opt/altera/nios2eds/bin/gnu/H-i686-pc-linux-gnu/bin/../lib/gcc/nios2-elf/4.1.2/../../../../nios2-elf/lib/mno-hw-mul/libc.a(lib_a-memcpy.o)
                0x00806b6c                memcpy
 .text          0x00806c0c       0xe0 /opt/altera/nios2eds/bin/gnu/H-i686-pc-linux-gnu/bin/../lib/gcc/nios2-elf/4.1.2/../../../../nios2-elf/lib/mno-hw-mul/libc.a(lib_a-memmove.o)
                0x00806c0c                memmove
 .text          0x00806cec       0x98 /opt/altera/nios2eds/bin/gnu/H-i686-pc-linux-gnu/bin/../lib/gcc/nios2-elf/4.1.2/../../../../nios2-elf/lib/mno-hw-mul/libc.a(lib_a-memset.o)
                0x00806cec                memset
 .text          0x00806d84     0x108c /opt/altera/nios2eds/bin/gnu/H-i686-pc-linux-gnu/bin/../lib/gcc/nios2-elf/4.1.2/../../../../nios2-elf/lib/mno-hw-mul/libc.a(lib_a-mprec.o)
                0x00806d84                _Bfree
                0x00806dac                __hi0bits
                0x00806e1c                __lo0bits
                0x00806ee0                __mcmp
                0x00806f40                __ulp
                0x00806fc0                __b2d
                0x008070e0                __ratio
                0x00807190                _mprec_log10
                0x00807224                __copybits
                0x0080727c                __any_on
                0x00807304                _Balloc
                0x008073c0                __d2b
                0x0080753c                __mdiff
                0x008076c8                __lshift
                0x00807814                __multiply
                0x00807a68                __i2b
                0x00807aa4                __multadd
                0x00807bd0                __pow5mult
                0x00807cf0                __s2b
 .text          0x00807e10      0x5f4 /opt/altera/nios2eds/bin/gnu/H-i686-pc-linux-gnu/bin/../lib/gcc/nios2-elf/4.1.2/../../../../nios2-elf/lib/mno-hw-mul/libc.a(lib_a-reallocr.o)
                0x00807e10                _realloc_r
 .text          0x00808404       0x40 /opt/altera/nios2eds/bin/gnu/H-i686-pc-linux-gnu/bin/../lib/gcc/nios2-elf/4.1.2/../../../../nios2-elf/lib/mno-hw-mul/libc.a(lib_a-s_isinfd.o)
                0x00808404                __isinfd
 .text          0x00808444       0x30 /opt/altera/nios2eds/bin/gnu/H-i686-pc-linux-gnu/bin/../lib/gcc/nios2-elf/4.1.2/../../../../nios2-elf/lib/mno-hw-mul/libc.a(lib_a-s_isnand.o)
                0x00808444                __isnand
 .text          0x00808474       0x70 /opt/altera/nios2eds/bin/gnu/H-i686-pc-linux-gnu/bin/../lib/gcc/nios2-elf/4.1.2/../../../../nios2-elf/lib/mno-hw-mul/libc.a(lib_a-sbrkr.o)
                0x00808474                _sbrk_r
 .text          0x008084e4      0x14c /opt/altera/nios2eds/bin/gnu/H-i686-pc-linux-gnu/bin/../lib/gcc/nios2-elf/4.1.2/../../../../nios2-elf/lib/mno-hw-mul/libc.a(lib_a-stdio.o)
                0x008084e4                __sclose
                0x008084ec                __sseek
                0x00808554                __swrite
                0x008085d0                __sread
 .text          0x00808630       0xbc /opt/altera/nios2eds/bin/gnu/H-i686-pc-linux-gnu/bin/../lib/gcc/nios2-elf/4.1.2/../../../../nios2-elf/lib/mno-hw-mul/libc.a(lib_a-strcmp.o)
                0x00808630                strcmp
 .text          0x008086ec       0x78 /opt/altera/nios2eds/bin/gnu/H-i686-pc-linux-gnu/bin/../lib/gcc/nios2-elf/4.1.2/../../../../nios2-elf/lib/mno-hw-mul/libc.a(lib_a-writer.o)
                0x008086ec                _write_r
 .text          0x00808764       0xc8 /opt/altera/nios2eds/bin/gnu/H-i686-pc-linux-gnu/bin/../lib/gcc/nios2-elf/4.1.2/../../../../nios2-elf/lib/mno-hw-mul/libc.a(lib_a-callocr.o)
                0x00808764                _calloc_r
 .text          0x0080882c       0x70 /opt/altera/nios2eds/bin/gnu/H-i686-pc-linux-gnu/bin/../lib/gcc/nios2-elf/4.1.2/../../../../nios2-elf/lib/mno-hw-mul/libc.a(lib_a-closer.o)
                0x0080882c                _close_r
 .text          0x0080889c      0x124 /opt/altera/nios2eds/bin/gnu/H-i686-pc-linux-gnu/bin/../lib/gcc/nios2-elf/4.1.2/../../../../nios2-elf/lib/mno-hw-mul/libc.a(lib_a-fclose.o)
                0x0080889c                _fclose_r
                0x008089ac                fclose
 .text          0x008089c0       0x74 /opt/altera/nios2eds/bin/gnu/H-i686-pc-linux-gnu/bin/../lib/gcc/nios2-elf/4.1.2/../../../../nios2-elf/lib/mno-hw-mul/libc.a(lib_a-fstatr.o)
                0x008089c0                _fstat_r
 .text          0x00808a34        0x0 /opt/altera/nios2eds/bin/gnu/H-i686-pc-linux-gnu/bin/../lib/gcc/nios2-elf/4.1.2/../../../../nios2-elf/lib/mno-hw-mul/libc.a(lib_a-int_errno.o)
 .text          0x00808a34       0x70 /opt/altera/nios2eds/bin/gnu/H-i686-pc-linux-gnu/bin/../lib/gcc/nios2-elf/4.1.2/../../../../nios2-elf/lib/mno-hw-mul/libc.a(lib_a-isattyr.o)
                0x00808a34                _isatty_r
 .text          0x00808aa4       0x78 /opt/altera/nios2eds/bin/gnu/H-i686-pc-linux-gnu/bin/../lib/gcc/nios2-elf/4.1.2/../../../../nios2-elf/lib/mno-hw-mul/libc.a(lib_a-lseekr.o)
                0x00808aa4                _lseek_r
 .text          0x00808b1c       0x78 /opt/altera/nios2eds/bin/gnu/H-i686-pc-linux-gnu/bin/../lib/gcc/nios2-elf/4.1.2/../../../../nios2-elf/lib/mno-hw-mul/libc.a(lib_a-readr.o)
                0x00808b1c                _read_r
 .text          0x00808b94      0x66c /opt/altera/nios2eds/bin/gnu/H-i686-pc-linux-gnu/bin/../lib/gcc/nios2-elf/4.1.2/mno-hw-mul/libgcc.a(_udivdi3.o)
                0x00808b94                __udivdi3
 .text          0x00809200      0x660 /opt/altera/nios2eds/bin/gnu/H-i686-pc-linux-gnu/bin/../lib/gcc/nios2-elf/4.1.2/mno-hw-mul/libgcc.a(_umoddi3.o)
                0x00809200                __umoddi3
 .text          0x00809860      0x504 /opt/altera/nios2eds/bin/gnu/H-i686-pc-linux-gnu/bin/../lib/gcc/nios2-elf/4.1.2/mno-hw-mul/libgcc.a(_addsub_df.o)
                0x00809c70                __subdf3
                0x00809cf0                __adddf3
 .text          0x00809d64      0x3c4 /opt/altera/nios2eds/bin/gnu/H-i686-pc-linux-gnu/bin/../lib/gcc/nios2-elf/4.1.2/mno-hw-mul/libgcc.a(_mul_df.o)
                0x00809d64                __muldf3
 .text          0x0080a128      0x258 /opt/altera/nios2eds/bin/gnu/H-i686-pc-linux-gnu/bin/../lib/gcc/nios2-elf/4.1.2/mno-hw-mul/libgcc.a(_div_df.o)
                0x0080a128                __divdf3
 .text          0x0080a380       0x88 /opt/altera/nios2eds/bin/gnu/H-i686-pc-linux-gnu/bin/../lib/gcc/nios2-elf/4.1.2/mno-hw-mul/libgcc.a(_eq_df.o)
                0x0080a380                __eqdf2
 .text          0x0080a408       0x88 /opt/altera/nios2eds/bin/gnu/H-i686-pc-linux-gnu/bin/../lib/gcc/nios2-elf/4.1.2/mno-hw-mul/libgcc.a(_ne_df.o)
                0x0080a408                __nedf2
 .text          0x0080a490       0x88 /opt/altera/nios2eds/bin/gnu/H-i686-pc-linux-gnu/bin/../lib/gcc/nios2-elf/4.1.2/mno-hw-mul/libgcc.a(_gt_df.o)
                0x0080a490                __gtdf2
 .text          0x0080a518       0x88 /opt/altera/nios2eds/bin/gnu/H-i686-pc-linux-gnu/bin/../lib/gcc/nios2-elf/4.1.2/mno-hw-mul/libgcc.a(_ge_df.o)
                0x0080a518                __gedf2
 .text          0x0080a5a0       0x88 /opt/altera/nios2eds/bin/gnu/H-i686-pc-linux-gnu/bin/../lib/gcc/nios2-elf/4.1.2/mno-hw-mul/libgcc.a(_lt_df.o)
                0x0080a5a0                __ltdf2
 .text          0x0080a628       0xf8 /opt/altera/nios2eds/bin/gnu/H-i686-pc-linux-gnu/bin/../lib/gcc/nios2-elf/4.1.2/mno-hw-mul/libgcc.a(_si_to_df.o)
                0x0080a628                __floatsidf
 .text          0x0080a720       0xd8 /opt/altera/nios2eds/bin/gnu/H-i686-pc-linux-gnu/bin/../lib/gcc/nios2-elf/4.1.2/mno-hw-mul/libgcc.a(_df_to_si.o)
                0x0080a720                __fixdfsi
 .text          0x0080a7f8        0x0 /opt/altera/nios2eds/bin/gnu/H-i686-pc-linux-gnu/bin/../lib/gcc/nios2-elf/4.1.2/mno-hw-mul/libgcc.a(_thenan_df.o)
 .text          0x0080a7f8      0x194 /opt/altera/nios2eds/bin/gnu/H-i686-pc-linux-gnu/bin/../lib/gcc/nios2-elf/4.1.2/mno-hw-mul/libgcc.a(_usi_to_df.o)
                0x0080a7f8                __floatunsidf
 .text          0x0080a98c       0x38 /opt/altera/nios2eds/bin/gnu/H-i686-pc-linux-gnu/bin/../lib/gcc/nios2-elf/4.1.2/mno-hw-mul/libgcc.a(lib2-mul.o)
                0x0080a98c                __mulsi3
 .text          0x0080a9c4      0x124 /opt/altera/nios2eds/bin/gnu/H-i686-pc-linux-gnu/bin/../lib/gcc/nios2-elf/4.1.2/mno-hw-mul/libgcc.a(_muldi3.o)
                0x0080a9c4                __muldi3
 .text          0x0080aae8        0x0 /opt/altera/nios2eds/bin/gnu/H-i686-pc-linux-gnu/bin/../lib/gcc/nios2-elf/4.1.2/mno-hw-mul/libgcc.a(_clz.o)
 .text          0x0080aae8       0x80 /opt/altera/nios2eds/bin/gnu/H-i686-pc-linux-gnu/bin/../lib/gcc/nios2-elf/4.1.2/mno-hw-mul/libgcc.a(_clzsi2.o)
                0x0080aae8                __clzsi2
 .text          0x0080ab68      0x314 /opt/altera/nios2eds/bin/gnu/H-i686-pc-linux-gnu/bin/../lib/gcc/nios2-elf/4.1.2/mno-hw-mul/libgcc.a(_pack_df.o)
                0x0080ab68                __pack_d
 .text          0x0080ae7c      0x138 /opt/altera/nios2eds/bin/gnu/H-i686-pc-linux-gnu/bin/../lib/gcc/nios2-elf/4.1.2/mno-hw-mul/libgcc.a(_unpack_df.o)
                0x0080ae7c                __unpack_d
 .text          0x0080afb4       0xc8 /opt/altera/nios2eds/bin/gnu/H-i686-pc-linux-gnu/bin/../lib/gcc/nios2-elf/4.1.2/mno-hw-mul/libgcc.a(_fpcmp_parts_df.o)
                0x0080afb4                __fpcmp_parts_d
 .text          0x0080b07c      0x160 ../de1_ucosii_tutorial_bsp//libucosii_bsp.a(alt_close.o)
                0x0080b07c                close
 .text          0x0080b1dc       0x2c ../de1_ucosii_tutorial_bsp//libucosii_bsp.a(alt_dev.o)
 .text          0x0080b208        0x0 ../de1_ucosii_tutorial_bsp//libucosii_bsp.a(alt_errno.o)
 .text          0x0080b208       0x6c ../de1_ucosii_tutorial_bsp//libucosii_bsp.a(alt_exit.o)
                0x0080b248                _exit
 .text          0x0080b274      0x138 ../de1_ucosii_tutorial_bsp//libucosii_bsp.a(alt_fstat.o)
                0x0080b274                fstat
 .text          0x0080b3ac      0x124 ../de1_ucosii_tutorial_bsp//libucosii_bsp.a(alt_isatty.o)
                0x0080b3ac                isatty
 .text          0x0080b4d0       0xec ../de1_ucosii_tutorial_bsp//libucosii_bsp.a(alt_load.o)
                0x0080b4d0                alt_load
 .text          0x0080b5bc      0x154 ../de1_ucosii_tutorial_bsp//libucosii_bsp.a(alt_lseek.o)
                0x0080b5bc                lseek
 .text          0x0080b710       0xc8 ../de1_ucosii_tutorial_bsp//libucosii_bsp.a(alt_main.o)
                0x0080b710                alt_main
 .text          0x0080b7d8      0x184 ../de1_ucosii_tutorial_bsp//libucosii_bsp.a(alt_read.o)
                0x0080b7d8                read
 .text          0x0080b95c       0x78 ../de1_ucosii_tutorial_bsp//libucosii_bsp.a(alt_release_fd.o)
                0x0080b95c                alt_release_fd
 .text          0x0080b9d4       0xbc ../de1_ucosii_tutorial_bsp//libucosii_bsp.a(alt_sbrk.o)
                0x0080b9d4                sbrk
 .text          0x0080ba90      0x184 ../de1_ucosii_tutorial_bsp//libucosii_bsp.a(alt_write.o)
                0x0080ba90                write
 .text          0x0080bc14      0x108 ../de1_ucosii_tutorial_bsp//libucosii_bsp.a(alt_env_lock.o)
                0x0080bc14                __env_lock
                0x0080bcc0                __env_unlock
 .text          0x0080bd1c      0x1d8 ../de1_ucosii_tutorial_bsp//libucosii_bsp.a(alt_malloc_lock.o)
                0x0080bd1c                __malloc_lock
                0x0080be24                __malloc_unlock
 .text          0x0080bef4     0x2128 ../de1_ucosii_tutorial_bsp//libucosii_bsp.a(os_core.o)
                0x0080bef4                OSEventNameGet
                0x0080c024                OSEventNameSet
                0x0080c168                OSEventPendMulti
                0x0080c81c                OSInit
                0x0080c870                OSIntEnter
                0x0080c8ec                OSIntExit
                0x0080c9ec                OSSchedLock
                0x0080ca78                OSSchedUnlock
                0x0080cb5c                OSStart
                0x0080cbcc                OSStatInit
                0x0080cc78                OSTimeTick
                0x0080ceb8                OSVersion
                0x0080ced8                OS_Dummy
                0x0080cef4                OS_EventTaskRdy
                0x0080d088                OS_EventTaskWait
                0x0080d198                OS_EventTaskWaitMulti
                0x0080d2ec                OS_EventTaskRemove
                0x0080d3a4                OS_EventTaskRemoveMulti
                0x0080d4a8                OS_EventWaitListInit
                0x0080d874                OS_MemClr
                0x0080d8c8                OS_MemCopy
                0x0080d934                OS_Sched
                0x0080da78                OS_StrCopy
                0x0080daf8                OS_StrLen
                0x0080db50                OS_TaskIdle
                0x0080dbac                OS_TaskStat
                0x0080dc74                OS_TaskStatStkChk
                0x0080dd3c                OS_TCBInit
 .text          0x0080e01c      0x18c ../de1_ucosii_tutorial_bsp//libucosii_bsp.a(os_dbg.o)
                0x0080e01c                OSDebugInit
 .text          0x0080e1a8     0x193c ../de1_ucosii_tutorial_bsp//libucosii_bsp.a(os_flag.o)
                0x0080e1a8                OSFlagAccept
                0x0080e4dc                OSFlagCreate
                0x0080e618                OSFlagDel
                0x0080e8c0                OSFlagNameGet
                0x0080ea04                OSFlagNameSet
                0x0080eb58                OSFlagPend
                0x0080f19c                OSFlagPendGetFlagsRdy
                0x0080f204                OSFlagPost
                0x0080f5ac                OSFlagQuery
                0x0080f844                OS_FlagInit
                0x0080fa38                OS_FlagUnlink
 .text          0x0080fae4      0x80c ../de1_ucosii_tutorial_bsp//libucosii_bsp.a(os_mem.o)
                0x0080fae4                OSMemCreate
                0x0080fd00                OSMemGet
                0x0080fe04                OSMemNameGet
                0x0080ff10                OSMemNameSet
                0x00810030                OSMemPut
                0x00810120                OSMemQuery
                0x0081021c                OS_MemInit
 .text          0x008102f0     0x1334 ../de1_ucosii_tutorial_bsp//libucosii_bsp.a(os_q.o)
                0x008102f0                OSQAccept
                0x00810444                OSQCreate
                0x00810658                OSQDel
                0x00810958                OSQFlush
                0x00810a20                OSQPend
                0x00810d40                OSQPendAbort
                0x00810ebc                OSQPost
                0x0081103c                OSQPostFront
                0x008111c4                OSQPostOpt
                0x008113f8                OSQQuery
                0x00811578                OS_QInit
 .text          0x00811624      0xbc8 ../de1_ucosii_tutorial_bsp//libucosii_bsp.a(os_sem.o)
                0x00811624                OSSemAccept
                0x008116e4                OSSemCreate
                0x008117f8                OSSemDel
                0x00811a98                OSSemPend
                0x00811d14                OSSemPendAbort
                0x00811e90                OSSemPost
                0x00811fb8                OSSemQuery
                0x008120e8                OSSemSet
 .text          0x008121ec     0x1a40 ../de1_ucosii_tutorial_bsp//libucosii_bsp.a(os_task.o)
                0x008121ec                OSTaskChangePrio
                0x00812760                OSTaskCreate
                0x00812934                OSTaskCreateExt
                0x00812b34                OSTaskDel
                0x00812f40                OSTaskDelReq
                0x008130b0                OSTaskNameGet
                0x00813268                OSTaskNameSet
                0x0081342c                OSTaskResume
                0x00813644                OSTaskStkChk
                0x00813840                OSTaskSuspend
                0x00813a6c                OSTaskQuery
                0x00813bb0                OS_TaskStkClr
 .text          0x00813c2c      0x5b4 ../de1_ucosii_tutorial_bsp//libucosii_bsp.a(os_time.o)
                0x00813c2c                OSTimeDly
                0x00813d78                OSTimeDlyHMSM
                0x00813f08                OSTimeDlyResume
                0x00814118                OSTimeGet
                0x0081417c                OSTimeSet
 .text          0x008141e0       0xc8 ../de1_ucosii_tutorial_bsp//libucosii_bsp.a(alt_sys_init.o)
                0x008141e0                alt_irq_init
                0x00814214                alt_sys_init
 .text          0x008142a8      0x148 ../de1_ucosii_tutorial_bsp//libucosii_bsp.a(altera_avalon_jtag_uart_fd.o)
                0x008142a8                altera_avalon_jtag_uart_read_fd
                0x00814300                altera_avalon_jtag_uart_write_fd
                0x00814358                altera_avalon_jtag_uart_close_fd
                0x008143a0                altera_avalon_jtag_uart_ioctl_fd
 .text          0x008143f0      0x584 ../de1_ucosii_tutorial_bsp//libucosii_bsp.a(altera_avalon_jtag_uart_init.o)
                0x008143f0                altera_avalon_jtag_uart_init
                0x00814900                altera_avalon_jtag_uart_close
 .text          0x00814974       0xf4 ../de1_ucosii_tutorial_bsp//libucosii_bsp.a(altera_avalon_jtag_uart_ioctl.o)
                0x00814974                altera_avalon_jtag_uart_ioctl
 .text          0x00814a68      0x2c0 ../de1_ucosii_tutorial_bsp//libucosii_bsp.a(altera_avalon_jtag_uart_read.o)
                0x00814a68                altera_avalon_jtag_uart_read
 .text          0x00814d28      0x2dc ../de1_ucosii_tutorial_bsp//libucosii_bsp.a(altera_avalon_jtag_uart_write.o)
                0x00814d28                altera_avalon_jtag_uart_write
 .text          0x00815004      0x100 ../de1_ucosii_tutorial_bsp//libucosii_bsp.a(altera_avalon_timer_sc.o)
                0x00815074                alt_avalon_timer_sc_init
 .text          0x00815104      0x154 ../de1_ucosii_tutorial_bsp//libucosii_bsp.a(alt_alarm_start.o)
                0x00815104                alt_alarm_start
 .text          0x00815258       0x1c ../de1_ucosii_tutorial_bsp//libucosii_bsp.a(alt_dcache_flush_all.o)
                0x00815258                alt_dcache_flush_all
 .text          0x00815274      0x114 ../de1_ucosii_tutorial_bsp//libucosii_bsp.a(alt_dev_llist_insert.o)
                0x00815274                alt_dev_llist_insert
 .text          0x00815388       0x64 ../de1_ucosii_tutorial_bsp//libucosii_bsp.a(alt_do_ctors.o)
                0x00815388                _do_ctors
 .text          0x008153ec       0x64 ../de1_ucosii_tutorial_bsp//libucosii_bsp.a(alt_do_dtors.o)
                0x008153ec                _do_dtors
 .text          0x00815450       0x1c ../de1_ucosii_tutorial_bsp//libucosii_bsp.a(alt_icache_flush_all.o)
                0x00815450                alt_icache_flush_all
 .text          0x0081546c      0x1d4 ../de1_ucosii_tutorial_bsp//libucosii_bsp.a(alt_iic.o)
                0x0081546c                alt_ic_isr_register
                0x008154bc                alt_ic_irq_enable
                0x00815558                alt_ic_irq_disable
                0x008155f8                alt_ic_irq_enabled
 .text          0x00815640       0xf8 ../de1_ucosii_tutorial_bsp//libucosii_bsp.a(alt_iic_isr_register.o)
                0x00815640                alt_iic_isr_register
 .text          0x00815738      0x150 ../de1_ucosii_tutorial_bsp//libucosii_bsp.a(alt_io_redirect.o)
                0x00815810                alt_io_redirect
 .text          0x00815888        0x0 ../de1_ucosii_tutorial_bsp//libucosii_bsp.a(alt_irq_entry.o)
 .text          0x00815888        0x0 ../de1_ucosii_tutorial_bsp//libucosii_bsp.a(alt_irq_handler.o)
 .text          0x00815888        0x0 ../de1_ucosii_tutorial_bsp//libucosii_bsp.a(alt_irq_vars.o)
 .text          0x00815888      0x2e4 ../de1_ucosii_tutorial_bsp//libucosii_bsp.a(alt_open.o)
                0x00815980                open
 .text          0x00815b6c      0x1a8 ../de1_ucosii_tutorial_bsp//libucosii_bsp.a(alt_tick.o)
                0x00815b6c                alt_alarm_stop
                0x00815c04                alt_tick
 .text          0x00815d14       0x20 ../de1_ucosii_tutorial_bsp//libucosii_bsp.a(altera_nios2_qsys_irq.o)
                0x00815d14                altera_nios2_qsys_irq_init
 .text          0x00815d34       0xd0 ../de1_ucosii_tutorial_bsp//libucosii_bsp.a(os_cpu_a.o)
                0x00815d34                OSCtxSw
                0x00815d34                OSIntCtxSw
                0x00815dc0                OSStartHighRdy
                0x00815de0                OSStartTsk
 .text          0x00815e04      0x418 ../de1_ucosii_tutorial_bsp//libucosii_bsp.a(os_cpu_c.o)
                0x00815e04                OSTaskStkInit
                0x00816114                OSTaskCreateHook
                0x00816134                OSTaskDelHook
                0x00816154                OSTaskSwHook
                0x00816170                OSTaskStatHook
                0x0081618c                OSTimeTickHook
                0x008161a8                OSInitHookBegin
                0x008161c4                OSInitHookEnd
                0x008161e0                OSTaskIdleHook
                0x008161fc                OSTCBInitHook
 .text          0x0081621c        0x0 ../de1_ucosii_tutorial_bsp//libucosii_bsp.a(alt_exception_entry.o)
 .text          0x0081621c       0x94 ../de1_ucosii_tutorial_bsp//libucosii_bsp.a(alt_find_dev.o)
                0x0081621c                alt_find_dev
 .text          0x008162b0      0x120 ../de1_ucosii_tutorial_bsp//libucosii_bsp.a(alt_find_file.o)
                0x008162b0                alt_find_file
 .text          0x008163d0      0x104 ../de1_ucosii_tutorial_bsp//libucosii_bsp.a(alt_get_fd.o)
                0x008163d0                alt_get_fd
 .text          0x008164d4       0x14 /opt/altera/nios2eds/bin/gnu/H-i686-pc-linux-gnu/bin/../lib/gcc/nios2-elf/4.1.2/../../../../nios2-elf/lib/mno-hw-mul/libc.a(lib_a-atexit.o)
                0x008164d4                atexit
 .text          0x008164e8       0x74 /opt/altera/nios2eds/bin/gnu/H-i686-pc-linux-gnu/bin/../lib/gcc/nios2-elf/4.1.2/../../../../nios2-elf/lib/mno-hw-mul/libc.a(lib_a-memcmp.o)
                0x008164e8                memcmp
 .text          0x0081655c      0x134 /opt/altera/nios2eds/bin/gnu/H-i686-pc-linux-gnu/bin/../lib/gcc/nios2-elf/4.1.2/../../../../nios2-elf/lib/mno-hw-mul/libc.a(lib_a-__atexit.o)
                0x0081655c                __register_exitproc
 *(.gnu.warning.*)
 *(.fini)
                0x00816690                PROVIDE (__etext, ABSOLUTE (.))
                0x00816690                PROVIDE (_etext, ABSOLUTE (.))
                0x00816690                PROVIDE (etext, ABSOLUTE (.))
 *(.eh_frame_hdr)
                0x00816690                . = ALIGN (0x4)
                0x00816690                PROVIDE (__preinit_array_start, ABSOLUTE (.))
 *(.preinit_array)
                0x00816690                PROVIDE (__preinit_array_end, ABSOLUTE (.))
                0x00816690                PROVIDE (__init_array_start, ABSOLUTE (.))
 *(.init_array)
                0x00816690                PROVIDE (__init_array_end, ABSOLUTE (.))
                0x00816690                PROVIDE (__fini_array_start, ABSOLUTE (.))
 *(.fini_array)
                0x00816690                PROVIDE (__fini_array_end, ABSOLUTE (.))
 *(.eh_frame)
 .eh_frame      0x00816690       0x40 /opt/altera/nios2eds/bin/gnu/H-i686-pc-linux-gnu/bin/../lib/gcc/nios2-elf/4.1.2/mno-hw-mul/libgcc.a(_udivdi3.o)
 .eh_frame      0x008166d0       0x2c /opt/altera/nios2eds/bin/gnu/H-i686-pc-linux-gnu/bin/../lib/gcc/nios2-elf/4.1.2/mno-hw-mul/libgcc.a(_umoddi3.o)
                                 0x40 (size before relaxing)
 *(.gcc_except_table)
 *(.dynamic)
                0x008166fc                PROVIDE (__CTOR_LIST__, ABSOLUTE (.))
 *(.ctors)
 *(SORT(.ctors.*))
 .ctors.65535   0x008166fc        0x4 /opt/altera/nios2eds/bin/gnu/H-i686-pc-linux-gnu/bin/../lib/gcc/nios2-elf/4.1.2/../../../../nios2-elf/lib/mno-hw-mul/libc.a(lib_a-__call_atexit.o)
                0x00816700                PROVIDE (__CTOR_END__, ABSOLUTE (.))
                0x00816700                PROVIDE (__DTOR_LIST__, ABSOLUTE (.))
 *(.dtors)
 *(SORT(.dtors.*))
                0x00816700                PROVIDE (__DTOR_END__, ABSOLUTE (.))
 *(.jcr)
                0x00816700                . = ALIGN (0x4)

.rodata         0x00816700      0x860
                0x00816700                PROVIDE (__ram_rodata_start, ABSOLUTE (.))
                0x00816700                . = ALIGN (0x4)
 *(.rodata .rodata.* .gnu.linkonce.r.*)
 .rodata        0x00816700      0x378 obj/default/alt_ucosii_simple_error_check.o
 .rodata        0x00816a78       0x80 obj/default/producer_consumer.o
 .rodata.str1.4
                0x00816af8        0x2 /opt/altera/nios2eds/bin/gnu/H-i686-pc-linux-gnu/bin/../lib/gcc/nios2-elf/4.1.2/../../../../nios2-elf/lib/mno-hw-mul/libc.a(lib_a-impure.o)
                                  0x4 (size before relaxing)
 *fill*         0x00816afa        0x2 00
 .rodata.str1.4
                0x00816afc        0x2 /opt/altera/nios2eds/bin/gnu/H-i686-pc-linux-gnu/bin/../lib/gcc/nios2-elf/4.1.2/../../../../nios2-elf/lib/mno-hw-mul/libc.a(lib_a-puts.o)
                                  0x4 (size before relaxing)
 *fill*         0x00816afe        0x2 00
 .rodata.str1.4
                0x00816b00       0x5e /opt/altera/nios2eds/bin/gnu/H-i686-pc-linux-gnu/bin/../lib/gcc/nios2-elf/4.1.2/../../../../nios2-elf/lib/mno-hw-mul/libc.a(lib_a-vfprintf.o)
                                 0x60 (size before relaxing)
 .rodata        0x00816b5e       0x20 /opt/altera/nios2eds/bin/gnu/H-i686-pc-linux-gnu/bin/../lib/gcc/nios2-elf/4.1.2/../../../../nios2-elf/lib/mno-hw-mul/libc.a(lib_a-vfprintf.o)
 *fill*         0x00816b7e        0x2 00
 .rodata.str1.4
                0x00816b80       0x10 /opt/altera/nios2eds/bin/gnu/H-i686-pc-linux-gnu/bin/../lib/gcc/nios2-elf/4.1.2/../../../../nios2-elf/lib/mno-hw-mul/libc.a(lib_a-dtoa.o)
                                 0x14 (size before relaxing)
 .rodata.str1.4
                0x00816b90       0x10 /opt/altera/nios2eds/bin/gnu/H-i686-pc-linux-gnu/bin/../lib/gcc/nios2-elf/4.1.2/../../../../nios2-elf/lib/mno-hw-mul/libc.a(lib_a-locale.o)
                                 0x18 (size before relaxing)
 .rodata        0x00816ba0       0x30 /opt/altera/nios2eds/bin/gnu/H-i686-pc-linux-gnu/bin/../lib/gcc/nios2-elf/4.1.2/../../../../nios2-elf/lib/mno-hw-mul/libc.a(lib_a-locale.o)
 .rodata        0x00816bd0      0x124 /opt/altera/nios2eds/bin/gnu/H-i686-pc-linux-gnu/bin/../lib/gcc/nios2-elf/4.1.2/../../../../nios2-elf/lib/mno-hw-mul/libc.a(lib_a-mprec.o)
                0x00816bd0                __mprec_tens
                0x00816c98                __mprec_bigtens
                0x00816cc0                __mprec_tinytens
 .rodata        0x00816cf4       0x14 /opt/altera/nios2eds/bin/gnu/H-i686-pc-linux-gnu/bin/../lib/gcc/nios2-elf/4.1.2/mno-hw-mul/libgcc.a(_thenan_df.o)
                0x00816cf4                __thenan_df
 .rodata        0x00816d08      0x100 /opt/altera/nios2eds/bin/gnu/H-i686-pc-linux-gnu/bin/../lib/gcc/nios2-elf/4.1.2/mno-hw-mul/libgcc.a(_clz.o)
                0x00816d08                __clz_tab
 .rodata        0x00816e08        0xc ../de1_ucosii_tutorial_bsp//libucosii_bsp.a(alt_dev.o)
 .rodata        0x00816e14       0x14 ../de1_ucosii_tutorial_bsp//libucosii_bsp.a(alt_main.o)
 .rodata        0x00816e28      0x120 ../de1_ucosii_tutorial_bsp//libucosii_bsp.a(os_core.o)
                0x00816e28                OSUnMapTbl
 .rodata        0x00816f48       0x14 ../de1_ucosii_tutorial_bsp//libucosii_bsp.a(alt_sys_init.o)
 .rodata        0x00816f5c        0x4 ../de1_ucosii_tutorial_bsp//libucosii_bsp.a(os_cpu_c.o)
 *(.rodata1)
                0x00816f60                . = ALIGN (0x4)
                0x00816f60                PROVIDE (__ram_rodata_end, ABSOLUTE (.))
                0x00816700                PROVIDE (__flash_rodata_start, LOADADDR (.rodata))

.rwdata         0x00816f60     0x1ae4 load address 0x00818a44
                0x00816f60                PROVIDE (__ram_rwdata_start, ABSOLUTE (.))
                0x00816f60                . = ALIGN (0x4)
 *(.got.plt)
 *(.got)
 *(.data1)
 *(.data .data.* .gnu.linkonce.d.*)
 .data          0x00816f60        0x0 ../de1_ucosii_tutorial_bsp//obj/HAL/src/crt0.o
 .data          0x00816f60        0x0 obj/default/alt_ucosii_simple_error_check.o
 .data          0x00816f60        0x0 obj/default/producer_consumer.o
 .data          0x00816f60        0x0 /opt/altera/nios2eds/bin/gnu/H-i686-pc-linux-gnu/bin/../lib/gcc/nios2-elf/4.1.2/mno-hw-mul/libgcc.a(lib2-divmod.o)
 .data          0x00816f60        0x0 /opt/altera/nios2eds/bin/gnu/H-i686-pc-linux-gnu/bin/../lib/gcc/nios2-elf/4.1.2/../../../../nios2-elf/lib/mno-hw-mul/libc.a(lib_a-exit.o)
 .data          0x00816f60        0x0 /opt/altera/nios2eds/bin/gnu/H-i686-pc-linux-gnu/bin/../lib/gcc/nios2-elf/4.1.2/../../../../nios2-elf/lib/mno-hw-mul/libc.a(lib_a-fprintf.o)
 .data          0x00816f60        0x0 /opt/altera/nios2eds/bin/gnu/H-i686-pc-linux-gnu/bin/../lib/gcc/nios2-elf/4.1.2/../../../../nios2-elf/lib/mno-hw-mul/libc.a(lib_a-fwrite.o)
 .data          0x00816f60      0x400 /opt/altera/nios2eds/bin/gnu/H-i686-pc-linux-gnu/bin/../lib/gcc/nios2-elf/4.1.2/../../../../nios2-elf/lib/mno-hw-mul/libc.a(lib_a-impure.o)
 .data          0x00817360        0x0 /opt/altera/nios2eds/bin/gnu/H-i686-pc-linux-gnu/bin/../lib/gcc/nios2-elf/4.1.2/../../../../nios2-elf/lib/mno-hw-mul/libc.a(lib_a-printf.o)
 .data          0x00817360        0x0 /opt/altera/nios2eds/bin/gnu/H-i686-pc-linux-gnu/bin/../lib/gcc/nios2-elf/4.1.2/../../../../nios2-elf/lib/mno-hw-mul/libc.a(lib_a-puts.o)
 .data          0x00817360        0x0 /opt/altera/nios2eds/bin/gnu/H-i686-pc-linux-gnu/bin/../lib/gcc/nios2-elf/4.1.2/../../../../nios2-elf/lib/mno-hw-mul/libc.a(lib_a-strlen.o)
 .data          0x00817360        0x0 /opt/altera/nios2eds/bin/gnu/H-i686-pc-linux-gnu/bin/../lib/gcc/nios2-elf/4.1.2/../../../../nios2-elf/lib/mno-hw-mul/libc.a(lib_a-vfprintf.o)
 .data          0x00817360        0x0 /opt/altera/nios2eds/bin/gnu/H-i686-pc-linux-gnu/bin/../lib/gcc/nios2-elf/4.1.2/../../../../nios2-elf/lib/mno-hw-mul/libc.a(lib_a-wsetup.o)
 .data          0x00817360        0x0 /opt/altera/nios2eds/bin/gnu/H-i686-pc-linux-gnu/bin/../lib/gcc/nios2-elf/4.1.2/../../../../nios2-elf/lib/mno-hw-mul/libc.a(lib_a-__call_atexit.o)
 .data          0x00817360        0x0 /opt/altera/nios2eds/bin/gnu/H-i686-pc-linux-gnu/bin/../lib/gcc/nios2-elf/4.1.2/../../../../nios2-elf/lib/mno-hw-mul/libc.a(lib_a-dtoa.o)
 .data          0x00817360        0x0 /opt/altera/nios2eds/bin/gnu/H-i686-pc-linux-gnu/bin/../lib/gcc/nios2-elf/4.1.2/../../../../nios2-elf/lib/mno-hw-mul/libc.a(lib_a-fflush.o)
 .data          0x00817360        0x0 /opt/altera/nios2eds/bin/gnu/H-i686-pc-linux-gnu/bin/../lib/gcc/nios2-elf/4.1.2/../../../../nios2-elf/lib/mno-hw-mul/libc.a(lib_a-findfp.o)
 .data          0x00817360        0x0 /opt/altera/nios2eds/bin/gnu/H-i686-pc-linux-gnu/bin/../lib/gcc/nios2-elf/4.1.2/../../../../nios2-elf/lib/mno-hw-mul/libc.a(lib_a-freer.o)
 .data          0x00817360        0x0 /opt/altera/nios2eds/bin/gnu/H-i686-pc-linux-gnu/bin/../lib/gcc/nios2-elf/4.1.2/../../../../nios2-elf/lib/mno-hw-mul/libc.a(lib_a-fvwrite.o)
 .data          0x00817360        0x0 /opt/altera/nios2eds/bin/gnu/H-i686-pc-linux-gnu/bin/../lib/gcc/nios2-elf/4.1.2/../../../../nios2-elf/lib/mno-hw-mul/libc.a(lib_a-fwalk.o)
 .data          0x00817360        0xc /opt/altera/nios2eds/bin/gnu/H-i686-pc-linux-gnu/bin/../lib/gcc/nios2-elf/4.1.2/../../../../nios2-elf/lib/mno-hw-mul/libc.a(lib_a-locale.o)
                0x00817360                __lc_ctype
 .data          0x0081736c        0x0 /opt/altera/nios2eds/bin/gnu/H-i686-pc-linux-gnu/bin/../lib/gcc/nios2-elf/4.1.2/../../../../nios2-elf/lib/mno-hw-mul/libc.a(lib_a-makebuf.o)
 .data          0x0081736c      0x408 /opt/altera/nios2eds/bin/gnu/H-i686-pc-linux-gnu/bin/../lib/gcc/nios2-elf/4.1.2/../../../../nios2-elf/lib/mno-hw-mul/libc.a(lib_a-mallocr.o)
                0x0081736c                __malloc_av_
 .data          0x00817774        0x0 /opt/altera/nios2eds/bin/gnu/H-i686-pc-linux-gnu/bin/../lib/gcc/nios2-elf/4.1.2/../../../../nios2-elf/lib/mno-hw-mul/libc.a(lib_a-memchr.o)
 .data          0x00817774        0x0 /opt/altera/nios2eds/bin/gnu/H-i686-pc-linux-gnu/bin/../lib/gcc/nios2-elf/4.1.2/../../../../nios2-elf/lib/mno-hw-mul/libc.a(lib_a-memcpy.o)
 .data          0x00817774        0x0 /opt/altera/nios2eds/bin/gnu/H-i686-pc-linux-gnu/bin/../lib/gcc/nios2-elf/4.1.2/../../../../nios2-elf/lib/mno-hw-mul/libc.a(lib_a-memmove.o)
 .data          0x00817774        0x0 /opt/altera/nios2eds/bin/gnu/H-i686-pc-linux-gnu/bin/../lib/gcc/nios2-elf/4.1.2/../../../../nios2-elf/lib/mno-hw-mul/libc.a(lib_a-memset.o)
 .data          0x00817774        0x0 /opt/altera/nios2eds/bin/gnu/H-i686-pc-linux-gnu/bin/../lib/gcc/nios2-elf/4.1.2/../../../../nios2-elf/lib/mno-hw-mul/libc.a(lib_a-mprec.o)
 .data          0x00817774        0x0 /opt/altera/nios2eds/bin/gnu/H-i686-pc-linux-gnu/bin/../lib/gcc/nios2-elf/4.1.2/../../../../nios2-elf/lib/mno-hw-mul/libc.a(lib_a-reallocr.o)
 .data          0x00817774        0x0 /opt/altera/nios2eds/bin/gnu/H-i686-pc-linux-gnu/bin/../lib/gcc/nios2-elf/4.1.2/../../../../nios2-elf/lib/mno-hw-mul/libc.a(lib_a-s_isinfd.o)
 .data          0x00817774        0x0 /opt/altera/nios2eds/bin/gnu/H-i686-pc-linux-gnu/bin/../lib/gcc/nios2-elf/4.1.2/../../../../nios2-elf/lib/mno-hw-mul/libc.a(lib_a-s_isnand.o)
 .data          0x00817774        0x0 /opt/altera/nios2eds/bin/gnu/H-i686-pc-linux-gnu/bin/../lib/gcc/nios2-elf/4.1.2/../../../../nios2-elf/lib/mno-hw-mul/libc.a(lib_a-sbrkr.o)
 .data          0x00817774        0x0 /opt/altera/nios2eds/bin/gnu/H-i686-pc-linux-gnu/bin/../lib/gcc/nios2-elf/4.1.2/../../../../nios2-elf/lib/mno-hw-mul/libc.a(lib_a-stdio.o)
 .data          0x00817774        0x0 /opt/altera/nios2eds/bin/gnu/H-i686-pc-linux-gnu/bin/../lib/gcc/nios2-elf/4.1.2/../../../../nios2-elf/lib/mno-hw-mul/libc.a(lib_a-strcmp.o)
 .data          0x00817774        0x0 /opt/altera/nios2eds/bin/gnu/H-i686-pc-linux-gnu/bin/../lib/gcc/nios2-elf/4.1.2/../../../../nios2-elf/lib/mno-hw-mul/libc.a(lib_a-writer.o)
 .data          0x00817774        0x0 /opt/altera/nios2eds/bin/gnu/H-i686-pc-linux-gnu/bin/../lib/gcc/nios2-elf/4.1.2/../../../../nios2-elf/lib/mno-hw-mul/libc.a(lib_a-callocr.o)
 .data          0x00817774        0x0 /opt/altera/nios2eds/bin/gnu/H-i686-pc-linux-gnu/bin/../lib/gcc/nios2-elf/4.1.2/../../../../nios2-elf/lib/mno-hw-mul/libc.a(lib_a-closer.o)
 .data          0x00817774        0x0 /opt/altera/nios2eds/bin/gnu/H-i686-pc-linux-gnu/bin/../lib/gcc/nios2-elf/4.1.2/../../../../nios2-elf/lib/mno-hw-mul/libc.a(lib_a-fclose.o)
 .data          0x00817774        0x0 /opt/altera/nios2eds/bin/gnu/H-i686-pc-linux-gnu/bin/../lib/gcc/nios2-elf/4.1.2/../../../../nios2-elf/lib/mno-hw-mul/libc.a(lib_a-fstatr.o)
 .data          0x00817774        0x0 /opt/altera/nios2eds/bin/gnu/H-i686-pc-linux-gnu/bin/../lib/gcc/nios2-elf/4.1.2/../../../../nios2-elf/lib/mno-hw-mul/libc.a(lib_a-int_errno.o)
 .data          0x00817774        0x0 /opt/altera/nios2eds/bin/gnu/H-i686-pc-linux-gnu/bin/../lib/gcc/nios2-elf/4.1.2/../../../../nios2-elf/lib/mno-hw-mul/libc.a(lib_a-isattyr.o)
 .data          0x00817774        0x0 /opt/altera/nios2eds/bin/gnu/H-i686-pc-linux-gnu/bin/../lib/gcc/nios2-elf/4.1.2/../../../../nios2-elf/lib/mno-hw-mul/libc.a(lib_a-lseekr.o)
 .data          0x00817774        0x0 /opt/altera/nios2eds/bin/gnu/H-i686-pc-linux-gnu/bin/../lib/gcc/nios2-elf/4.1.2/../../../../nios2-elf/lib/mno-hw-mul/libc.a(lib_a-readr.o)
 .data          0x00817774        0x0 /opt/altera/nios2eds/bin/gnu/H-i686-pc-linux-gnu/bin/../lib/gcc/nios2-elf/4.1.2/mno-hw-mul/libgcc.a(_udivdi3.o)
 .data          0x00817774        0x0 /opt/altera/nios2eds/bin/gnu/H-i686-pc-linux-gnu/bin/../lib/gcc/nios2-elf/4.1.2/mno-hw-mul/libgcc.a(_umoddi3.o)
 .data          0x00817774        0x0 /opt/altera/nios2eds/bin/gnu/H-i686-pc-linux-gnu/bin/../lib/gcc/nios2-elf/4.1.2/mno-hw-mul/libgcc.a(_addsub_df.o)
 .data          0x00817774        0x0 /opt/altera/nios2eds/bin/gnu/H-i686-pc-linux-gnu/bin/../lib/gcc/nios2-elf/4.1.2/mno-hw-mul/libgcc.a(_mul_df.o)
 .data          0x00817774        0x0 /opt/altera/nios2eds/bin/gnu/H-i686-pc-linux-gnu/bin/../lib/gcc/nios2-elf/4.1.2/mno-hw-mul/libgcc.a(_div_df.o)
 .data          0x00817774        0x0 /opt/altera/nios2eds/bin/gnu/H-i686-pc-linux-gnu/bin/../lib/gcc/nios2-elf/4.1.2/mno-hw-mul/libgcc.a(_eq_df.o)
 .data          0x00817774        0x0 /opt/altera/nios2eds/bin/gnu/H-i686-pc-linux-gnu/bin/../lib/gcc/nios2-elf/4.1.2/mno-hw-mul/libgcc.a(_ne_df.o)
 .data          0x00817774        0x0 /opt/altera/nios2eds/bin/gnu/H-i686-pc-linux-gnu/bin/../lib/gcc/nios2-elf/4.1.2/mno-hw-mul/libgcc.a(_gt_df.o)
 .data          0x00817774        0x0 /opt/altera/nios2eds/bin/gnu/H-i686-pc-linux-gnu/bin/../lib/gcc/nios2-elf/4.1.2/mno-hw-mul/libgcc.a(_ge_df.o)
 .data          0x00817774        0x0 /opt/altera/nios2eds/bin/gnu/H-i686-pc-linux-gnu/bin/../lib/gcc/nios2-elf/4.1.2/mno-hw-mul/libgcc.a(_lt_df.o)
 .data          0x00817774        0x0 /opt/altera/nios2eds/bin/gnu/H-i686-pc-linux-gnu/bin/../lib/gcc/nios2-elf/4.1.2/mno-hw-mul/libgcc.a(_si_to_df.o)
 .data          0x00817774        0x0 /opt/altera/nios2eds/bin/gnu/H-i686-pc-linux-gnu/bin/../lib/gcc/nios2-elf/4.1.2/mno-hw-mul/libgcc.a(_df_to_si.o)
 .data          0x00817774        0x0 /opt/altera/nios2eds/bin/gnu/H-i686-pc-linux-gnu/bin/../lib/gcc/nios2-elf/4.1.2/mno-hw-mul/libgcc.a(_thenan_df.o)
 .data          0x00817774        0x0 /opt/altera/nios2eds/bin/gnu/H-i686-pc-linux-gnu/bin/../lib/gcc/nios2-elf/4.1.2/mno-hw-mul/libgcc.a(_usi_to_df.o)
 .data          0x00817774        0x0 /opt/altera/nios2eds/bin/gnu/H-i686-pc-linux-gnu/bin/../lib/gcc/nios2-elf/4.1.2/mno-hw-mul/libgcc.a(lib2-mul.o)
 .data          0x00817774        0x0 /opt/altera/nios2eds/bin/gnu/H-i686-pc-linux-gnu/bin/../lib/gcc/nios2-elf/4.1.2/mno-hw-mul/libgcc.a(_muldi3.o)
 .data          0x00817774        0x0 /opt/altera/nios2eds/bin/gnu/H-i686-pc-linux-gnu/bin/../lib/gcc/nios2-elf/4.1.2/mno-hw-mul/libgcc.a(_clz.o)
 .data          0x00817774        0x0 /opt/altera/nios2eds/bin/gnu/H-i686-pc-linux-gnu/bin/../lib/gcc/nios2-elf/4.1.2/mno-hw-mul/libgcc.a(_clzsi2.o)
 .data          0x00817774        0x0 /opt/altera/nios2eds/bin/gnu/H-i686-pc-linux-gnu/bin/../lib/gcc/nios2-elf/4.1.2/mno-hw-mul/libgcc.a(_pack_df.o)
 .data          0x00817774        0x0 /opt/altera/nios2eds/bin/gnu/H-i686-pc-linux-gnu/bin/../lib/gcc/nios2-elf/4.1.2/mno-hw-mul/libgcc.a(_unpack_df.o)
 .data          0x00817774        0x0 /opt/altera/nios2eds/bin/gnu/H-i686-pc-linux-gnu/bin/../lib/gcc/nios2-elf/4.1.2/mno-hw-mul/libgcc.a(_fpcmp_parts_df.o)
 .data          0x00817774        0x0 ../de1_ucosii_tutorial_bsp//libucosii_bsp.a(alt_close.o)
 .data          0x00817774      0x1a8 ../de1_ucosii_tutorial_bsp//libucosii_bsp.a(alt_dev.o)
                0x00817774                alt_dev_null
                0x0081779c                alt_fd_list
 .data          0x0081791c        0x0 ../de1_ucosii_tutorial_bsp//libucosii_bsp.a(alt_errno.o)
 .data          0x0081791c        0x0 ../de1_ucosii_tutorial_bsp//libucosii_bsp.a(alt_exit.o)
 .data          0x0081791c        0x0 ../de1_ucosii_tutorial_bsp//libucosii_bsp.a(alt_fstat.o)
 .data          0x0081791c        0x0 ../de1_ucosii_tutorial_bsp//libucosii_bsp.a(alt_isatty.o)
 .data          0x0081791c        0x0 ../de1_ucosii_tutorial_bsp//libucosii_bsp.a(alt_load.o)
 .data          0x0081791c        0x0 ../de1_ucosii_tutorial_bsp//libucosii_bsp.a(alt_lseek.o)
 .data          0x0081791c        0x0 ../de1_ucosii_tutorial_bsp//libucosii_bsp.a(alt_main.o)
 .data          0x0081791c        0x0 ../de1_ucosii_tutorial_bsp//libucosii_bsp.a(alt_read.o)
 .data          0x0081791c        0x0 ../de1_ucosii_tutorial_bsp//libucosii_bsp.a(alt_release_fd.o)
 .data          0x0081791c        0x0 ../de1_ucosii_tutorial_bsp//libucosii_bsp.a(alt_sbrk.o)
 .data          0x0081791c        0x0 ../de1_ucosii_tutorial_bsp//libucosii_bsp.a(alt_write.o)
 .data          0x0081791c        0x0 ../de1_ucosii_tutorial_bsp//libucosii_bsp.a(alt_env_lock.o)
 .data          0x0081791c        0x0 ../de1_ucosii_tutorial_bsp//libucosii_bsp.a(alt_malloc_lock.o)
 .data          0x0081791c        0x0 ../de1_ucosii_tutorial_bsp//libucosii_bsp.a(os_core.o)
 .data          0x0081791c        0x0 ../de1_ucosii_tutorial_bsp//libucosii_bsp.a(os_dbg.o)
 .data          0x0081791c        0x0 ../de1_ucosii_tutorial_bsp//libucosii_bsp.a(os_flag.o)
 .data          0x0081791c        0x0 ../de1_ucosii_tutorial_bsp//libucosii_bsp.a(os_mem.o)
 .data          0x0081791c        0x0 ../de1_ucosii_tutorial_bsp//libucosii_bsp.a(os_q.o)
 .data          0x0081791c        0x0 ../de1_ucosii_tutorial_bsp//libucosii_bsp.a(os_sem.o)
 .data          0x0081791c        0x0 ../de1_ucosii_tutorial_bsp//libucosii_bsp.a(os_task.o)
 .data          0x0081791c        0x0 ../de1_ucosii_tutorial_bsp//libucosii_bsp.a(os_time.o)
 .data          0x0081791c     0x106c ../de1_ucosii_tutorial_bsp//libucosii_bsp.a(alt_sys_init.o)
 .data          0x00818988        0x0 ../de1_ucosii_tutorial_bsp//libucosii_bsp.a(altera_avalon_jtag_uart_fd.o)
 .data          0x00818988        0x0 ../de1_ucosii_tutorial_bsp//libucosii_bsp.a(altera_avalon_jtag_uart_init.o)
 .data          0x00818988        0x0 ../de1_ucosii_tutorial_bsp//libucosii_bsp.a(altera_avalon_jtag_uart_ioctl.o)
 .data          0x00818988        0x0 ../de1_ucosii_tutorial_bsp//libucosii_bsp.a(altera_avalon_jtag_uart_read.o)
 .data          0x00818988        0x0 ../de1_ucosii_tutorial_bsp//libucosii_bsp.a(altera_avalon_jtag_uart_write.o)
 .data          0x00818988        0x0 ../de1_ucosii_tutorial_bsp//libucosii_bsp.a(altera_avalon_timer_sc.o)
 .data          0x00818988        0x0 ../de1_ucosii_tutorial_bsp//libucosii_bsp.a(alt_alarm_start.o)
 .data          0x00818988        0x0 ../de1_ucosii_tutorial_bsp//libucosii_bsp.a(alt_dcache_flush_all.o)
 .data          0x00818988        0x0 ../de1_ucosii_tutorial_bsp//libucosii_bsp.a(alt_dev_llist_insert.o)
 .data          0x00818988        0x0 ../de1_ucosii_tutorial_bsp//libucosii_bsp.a(alt_do_ctors.o)
 .data          0x00818988        0x0 ../de1_ucosii_tutorial_bsp//libucosii_bsp.a(alt_do_dtors.o)
 .data          0x00818988        0x0 ../de1_ucosii_tutorial_bsp//libucosii_bsp.a(alt_icache_flush_all.o)
 .data          0x00818988        0x0 ../de1_ucosii_tutorial_bsp//libucosii_bsp.a(alt_iic.o)
 .data          0x00818988        0x0 ../de1_ucosii_tutorial_bsp//libucosii_bsp.a(alt_iic_isr_register.o)
 .data          0x00818988        0x0 ../de1_ucosii_tutorial_bsp//libucosii_bsp.a(alt_io_redirect.o)
 .data          0x00818988        0x0 ../de1_ucosii_tutorial_bsp//libucosii_bsp.a(alt_irq_entry.o)
 .data          0x00818988        0x0 ../de1_ucosii_tutorial_bsp//libucosii_bsp.a(alt_irq_handler.o)
 .data          0x00818988        0x0 ../de1_ucosii_tutorial_bsp//libucosii_bsp.a(alt_irq_vars.o)
 .data          0x00818988        0x0 ../de1_ucosii_tutorial_bsp//libucosii_bsp.a(alt_open.o)
 .data          0x00818988        0x0 ../de1_ucosii_tutorial_bsp//libucosii_bsp.a(alt_tick.o)
 .data          0x00818988        0x0 ../de1_ucosii_tutorial_bsp//libucosii_bsp.a(altera_nios2_qsys_irq.o)
 .data          0x00818988        0x0 ../de1_ucosii_tutorial_bsp//libucosii_bsp.a(os_cpu_a.o)
 .data          0x00818988        0x0 ../de1_ucosii_tutorial_bsp//libucosii_bsp.a(os_cpu_c.o)
 .data          0x00818988        0x0 ../de1_ucosii_tutorial_bsp//libucosii_bsp.a(alt_exception_entry.o)
 .data          0x00818988        0x0 ../de1_ucosii_tutorial_bsp//libucosii_bsp.a(alt_find_dev.o)
 .data          0x00818988        0x0 ../de1_ucosii_tutorial_bsp//libucosii_bsp.a(alt_find_file.o)
 .data          0x00818988        0x0 ../de1_ucosii_tutorial_bsp//libucosii_bsp.a(alt_get_fd.o)
 .data          0x00818988        0x0 /opt/altera/nios2eds/bin/gnu/H-i686-pc-linux-gnu/bin/../lib/gcc/nios2-elf/4.1.2/../../../../nios2-elf/lib/mno-hw-mul/libc.a(lib_a-atexit.o)
 .data          0x00818988        0x0 /opt/altera/nios2eds/bin/gnu/H-i686-pc-linux-gnu/bin/../lib/gcc/nios2-elf/4.1.2/../../../../nios2-elf/lib/mno-hw-mul/libc.a(lib_a-memcmp.o)
 .data          0x00818988        0x0 /opt/altera/nios2eds/bin/gnu/H-i686-pc-linux-gnu/bin/../lib/gcc/nios2-elf/4.1.2/../../../../nios2-elf/lib/mno-hw-mul/libc.a(lib_a-__atexit.o)
                0x00820988                _gp = ABSOLUTE ((. + 0x8000))
                0x00820988                PROVIDE (gp, _gp)
 *(.rwdata .rwdata.*)
 *(.sdata .sdata.* .gnu.linkonce.s.*)
 .sdata         0x00818988        0x8 /opt/altera/nios2eds/bin/gnu/H-i686-pc-linux-gnu/bin/../lib/gcc/nios2-elf/4.1.2/../../../../nios2-elf/lib/mno-hw-mul/libc.a(lib_a-impure.o)
                0x00818988                _impure_ptr
                0x0081898c                _global_impure_ptr
 .sdata         0x00818990        0x8 /opt/altera/nios2eds/bin/gnu/H-i686-pc-linux-gnu/bin/../lib/gcc/nios2-elf/4.1.2/../../../../nios2-elf/lib/mno-hw-mul/libc.a(lib_a-locale.o)
                0x00818990                __mb_cur_max
 .sdata         0x00818998        0x8 /opt/altera/nios2eds/bin/gnu/H-i686-pc-linux-gnu/bin/../lib/gcc/nios2-elf/4.1.2/../../../../nios2-elf/lib/mno-hw-mul/libc.a(lib_a-mallocr.o)
                0x00818998                __malloc_trim_threshold
                0x0081899c                __malloc_sbrk_base
 .sdata         0x008189a0       0x14 ../de1_ucosii_tutorial_bsp//libucosii_bsp.a(alt_dev.o)
                0x008189a0                alt_fs_list
                0x008189a8                alt_dev_list
                0x008189b0                alt_max_fd
 .sdata         0x008189b4        0x4 ../de1_ucosii_tutorial_bsp//libucosii_bsp.a(alt_errno.o)
                0x008189b4                alt_errno
 .sdata         0x008189b8        0x4 ../de1_ucosii_tutorial_bsp//libucosii_bsp.a(alt_sbrk.o)
 .sdata         0x008189bc        0x4 ../de1_ucosii_tutorial_bsp//libucosii_bsp.a(alt_env_lock.o)
 .sdata         0x008189c0        0x4 ../de1_ucosii_tutorial_bsp//libucosii_bsp.a(alt_malloc_lock.o)
 .sdata         0x008189c4       0x74 ../de1_ucosii_tutorial_bsp//libucosii_bsp.a(os_dbg.o)
                0x008189c4                OSDebugEn
                0x008189c8                OSEndiannessTest
                0x008189cc                OSEventEn
                0x008189ce                OSEventMax
                0x008189d0                OSEventNameSize
                0x008189d2                OSEventSize
                0x008189d4                OSEventTblSize
                0x008189d6                OSEventMultiEn
                0x008189d8                OSFlagEn
                0x008189da                OSFlagGrpSize
                0x008189dc                OSFlagNodeSize
                0x008189de                OSFlagWidth
                0x008189e0                OSFlagMax
                0x008189e2                OSFlagNameSize
                0x008189e4                OSLowestPrio
                0x008189e6                OSMboxEn
                0x008189e8                OSMemEn
                0x008189ea                OSMemMax
                0x008189ec                OSMemNameSize
                0x008189ee                OSMemSize
                0x008189f0                OSMemTblSize
                0x008189f2                OSMutexEn
                0x008189f4                OSPtrSize
                0x008189f6                OSQEn
                0x008189f8                OSQMax
                0x008189fa                OSQSize
                0x008189fc                OSRdyTblSize
                0x008189fe                OSSemEn
                0x00818a00                OSStkWidth
                0x00818a02                OSTaskCreateEn
                0x00818a04                OSTaskCreateExtEn
                0x00818a06                OSTaskDelEn
                0x00818a08                OSTaskIdleStkSize
                0x00818a0a                OSTaskProfileEn
                0x00818a0c                OSTaskMax
                0x00818a0e                OSTaskNameSize
                0x00818a10                OSTaskStatEn
                0x00818a12                OSTaskStatStkSize
                0x00818a14                OSTaskStatStkChkEn
                0x00818a16                OSTaskSwHookEn
                0x00818a18                OSTCBPrioTblMax
                0x00818a1a                OSTCBSize
                0x00818a1c                OSTicksPerSec
                0x00818a1e                OSTimeTickHookEn
                0x00818a20                OSVersionNbr
                0x00818a22                OSTmrEn
                0x00818a24                OSTmrCfgMax
                0x00818a26                OSTmrCfgNameSize
                0x00818a28                OSTmrCfgWheelSize
                0x00818a2a                OSTmrCfgTicksPerSec
                0x00818a2c                OSTmrSize
                0x00818a2e                OSTmrTblSize
                0x00818a30                OSTmrWheelSize
                0x00818a32                OSTmrWheelTblSize
                0x00818a34                OSDataSize
 .sdata         0x00818a38        0x4 ../de1_ucosii_tutorial_bsp//libucosii_bsp.a(alt_irq_vars.o)
                0x00818a38                alt_priority_mask
 .sdata         0x00818a3c        0x8 ../de1_ucosii_tutorial_bsp//libucosii_bsp.a(alt_tick.o)
                0x00818a3c                alt_alarm_list
 *(.sdata2 .sdata2.* .gnu.linkonce.s2.*)
                0x00818a44                . = ALIGN (0x4)
                0x00818a44                _edata = ABSOLUTE (.)
                0x00818a44                PROVIDE (edata, ABSOLUTE (.))
                0x00818a44                PROVIDE (__ram_rwdata_end, ABSOLUTE (.))
                0x00818a44                PROVIDE (__flash_rwdata_start, LOADADDR (.rwdata))

.bss            0x0081a528     0x758c
                0x0081a528                __bss_start = ABSOLUTE (.)
                0x0081a528                PROVIDE (__sbss_start, ABSOLUTE (.))
                0x0081a528                PROVIDE (___sbss_start, ABSOLUTE (.))
 *(.dynsbss)
 *(.sbss .sbss.* .gnu.linkonce.sb.*)
 .sbss          0x0081a528        0x4 obj/default/producer_consumer.o
                0x0081a528                buffer_sem
 .sbss          0x0081a52c        0xc /opt/altera/nios2eds/bin/gnu/H-i686-pc-linux-gnu/bin/../lib/gcc/nios2-elf/4.1.2/../../../../nios2-elf/lib/mno-hw-mul/libc.a(lib_a-locale.o)
                0x0081a52c                __nlocale_changed
                0x0081a530                __mlocale_changed
                0x0081a534                _PathLocale
 .sbss          0x0081a538        0xc /opt/altera/nios2eds/bin/gnu/H-i686-pc-linux-gnu/bin/../lib/gcc/nios2-elf/4.1.2/../../../../nios2-elf/lib/mno-hw-mul/libc.a(lib_a-mallocr.o)
                0x0081a538                __malloc_top_pad
                0x0081a53c                __malloc_max_sbrked_mem
                0x0081a540                __malloc_max_total_mem
 .sbss          0x0081a544        0x4 /opt/altera/nios2eds/bin/gnu/H-i686-pc-linux-gnu/bin/../lib/gcc/nios2-elf/4.1.2/../../../../nios2-elf/lib/mno-hw-mul/libc.a(lib_a-int_errno.o)
                0x0081a544                errno
 .sbss          0x0081a548        0x4 ../de1_ucosii_tutorial_bsp//libucosii_bsp.a(alt_dev.o)
                0x0081a548                alt_fd_list_lock
 .sbss          0x0081a54c        0xc ../de1_ucosii_tutorial_bsp//libucosii_bsp.a(alt_main.o)
                0x0081a54c                alt_argc
                0x0081a550                alt_argv
                0x0081a554                alt_envp
 .sbss          0x0081a558        0x8 ../de1_ucosii_tutorial_bsp//libucosii_bsp.a(alt_env_lock.o)
                0x0081a55c                alt_envsem
 .sbss          0x0081a560        0x8 ../de1_ucosii_tutorial_bsp//libucosii_bsp.a(alt_malloc_lock.o)
                0x0081a564                alt_heapsem
 .sbss          0x0081a568       0x50 ../de1_ucosii_tutorial_bsp//libucosii_bsp.a(os_core.o)
                0x0081a568                OSLockNesting
                0x0081a569                OSRunning
                0x0081a56c                OSIdleCtr
                0x0081a570                OSPrioHighRdy
                0x0081a571                OSPrioCur
                0x0081a574                OSTCBList
                0x0081a578                OSTickStepState
                0x0081a57c                OSCtxSwCtr
                0x0081a580                OSIdleCtrMax
                0x0081a584                OSTCBFreeList
                0x0081a588                OSCPUUsage
                0x0081a589                OSTaskCtr
                0x0081a58c                OSMemFreeList
                0x0081a590                OSTCBHighRdy
                0x0081a594                OSQFreeList
                0x0081a598                OSRdyGrp
                0x0081a599                OSRdyTbl
                0x0081a59c                OSEventFreeList
                0x0081a5a0                OSIntNesting
                0x0081a5a4                OSTCBCur
                0x0081a5a8                OSTime
                0x0081a5ac                OSFlagFreeList
                0x0081a5b0                OSStatRdy
                0x0081a5b4                OSIdleCtrRun
 .sbss          0x0081a5b8        0x4 ../de1_ucosii_tutorial_bsp//libucosii_bsp.a(alt_irq_vars.o)
                0x0081a5b8                alt_irq_active
 .sbss          0x0081a5bc        0x8 ../de1_ucosii_tutorial_bsp//libucosii_bsp.a(alt_tick.o)
                0x0081a5bc                _alt_tick_rate
                0x0081a5c0                _alt_nticks
 *(.sbss2 .sbss2.* .gnu.linkonce.sb2.*)
 *(.scommon)
                0x0081a5c4                PROVIDE (__sbss_end, ABSOLUTE (.))
                0x0081a5c4                PROVIDE (___sbss_end, ABSOLUTE (.))
 *(.dynbss)
 *(.bss .bss.* .gnu.linkonce.b.*)
 .bss           0x0081a5c4        0x0 ../de1_ucosii_tutorial_bsp//obj/HAL/src/crt0.o
 .bss           0x0081a5c4        0x0 obj/default/alt_ucosii_simple_error_check.o
 .bss           0x0081a5c4        0x0 obj/default/producer_consumer.o
 .bss           0x0081a5c4        0x0 /opt/altera/nios2eds/bin/gnu/H-i686-pc-linux-gnu/bin/../lib/gcc/nios2-elf/4.1.2/mno-hw-mul/libgcc.a(lib2-divmod.o)
 .bss           0x0081a5c4        0x0 /opt/altera/nios2eds/bin/gnu/H-i686-pc-linux-gnu/bin/../lib/gcc/nios2-elf/4.1.2/../../../../nios2-elf/lib/mno-hw-mul/libc.a(lib_a-exit.o)
 .bss           0x0081a5c4        0x0 /opt/altera/nios2eds/bin/gnu/H-i686-pc-linux-gnu/bin/../lib/gcc/nios2-elf/4.1.2/../../../../nios2-elf/lib/mno-hw-mul/libc.a(lib_a-fprintf.o)
 .bss           0x0081a5c4        0x0 /opt/altera/nios2eds/bin/gnu/H-i686-pc-linux-gnu/bin/../lib/gcc/nios2-elf/4.1.2/../../../../nios2-elf/lib/mno-hw-mul/libc.a(lib_a-fwrite.o)
 .bss           0x0081a5c4        0x0 /opt/altera/nios2eds/bin/gnu/H-i686-pc-linux-gnu/bin/../lib/gcc/nios2-elf/4.1.2/../../../../nios2-elf/lib/mno-hw-mul/libc.a(lib_a-impure.o)
 .bss           0x0081a5c4        0x0 /opt/altera/nios2eds/bin/gnu/H-i686-pc-linux-gnu/bin/../lib/gcc/nios2-elf/4.1.2/../../../../nios2-elf/lib/mno-hw-mul/libc.a(lib_a-printf.o)
 .bss           0x0081a5c4        0x0 /opt/altera/nios2eds/bin/gnu/H-i686-pc-linux-gnu/bin/../lib/gcc/nios2-elf/4.1.2/../../../../nios2-elf/lib/mno-hw-mul/libc.a(lib_a-puts.o)
 .bss           0x0081a5c4        0x0 /opt/altera/nios2eds/bin/gnu/H-i686-pc-linux-gnu/bin/../lib/gcc/nios2-elf/4.1.2/../../../../nios2-elf/lib/mno-hw-mul/libc.a(lib_a-strlen.o)
 .bss           0x0081a5c4        0x0 /opt/altera/nios2eds/bin/gnu/H-i686-pc-linux-gnu/bin/../lib/gcc/nios2-elf/4.1.2/../../../../nios2-elf/lib/mno-hw-mul/libc.a(lib_a-vfprintf.o)
 .bss           0x0081a5c4        0x0 /opt/altera/nios2eds/bin/gnu/H-i686-pc-linux-gnu/bin/../lib/gcc/nios2-elf/4.1.2/../../../../nios2-elf/lib/mno-hw-mul/libc.a(lib_a-wsetup.o)
 .bss           0x0081a5c4        0x0 /opt/altera/nios2eds/bin/gnu/H-i686-pc-linux-gnu/bin/../lib/gcc/nios2-elf/4.1.2/../../../../nios2-elf/lib/mno-hw-mul/libc.a(lib_a-__call_atexit.o)
 .bss           0x0081a5c4        0x0 /opt/altera/nios2eds/bin/gnu/H-i686-pc-linux-gnu/bin/../lib/gcc/nios2-elf/4.1.2/../../../../nios2-elf/lib/mno-hw-mul/libc.a(lib_a-dtoa.o)
 .bss           0x0081a5c4        0x0 /opt/altera/nios2eds/bin/gnu/H-i686-pc-linux-gnu/bin/../lib/gcc/nios2-elf/4.1.2/../../../../nios2-elf/lib/mno-hw-mul/libc.a(lib_a-fflush.o)
 .bss           0x0081a5c4        0x0 /opt/altera/nios2eds/bin/gnu/H-i686-pc-linux-gnu/bin/../lib/gcc/nios2-elf/4.1.2/../../../../nios2-elf/lib/mno-hw-mul/libc.a(lib_a-findfp.o)
 .bss           0x0081a5c4        0x0 /opt/altera/nios2eds/bin/gnu/H-i686-pc-linux-gnu/bin/../lib/gcc/nios2-elf/4.1.2/../../../../nios2-elf/lib/mno-hw-mul/libc.a(lib_a-freer.o)
 .bss           0x0081a5c4        0x0 /opt/altera/nios2eds/bin/gnu/H-i686-pc-linux-gnu/bin/../lib/gcc/nios2-elf/4.1.2/../../../../nios2-elf/lib/mno-hw-mul/libc.a(lib_a-fvwrite.o)
 .bss           0x0081a5c4        0x0 /opt/altera/nios2eds/bin/gnu/H-i686-pc-linux-gnu/bin/../lib/gcc/nios2-elf/4.1.2/../../../../nios2-elf/lib/mno-hw-mul/libc.a(lib_a-fwalk.o)
 .bss           0x0081a5c4        0x0 /opt/altera/nios2eds/bin/gnu/H-i686-pc-linux-gnu/bin/../lib/gcc/nios2-elf/4.1.2/../../../../nios2-elf/lib/mno-hw-mul/libc.a(lib_a-locale.o)
 .bss           0x0081a5c4        0x0 /opt/altera/nios2eds/bin/gnu/H-i686-pc-linux-gnu/bin/../lib/gcc/nios2-elf/4.1.2/../../../../nios2-elf/lib/mno-hw-mul/libc.a(lib_a-makebuf.o)
 .bss           0x0081a5c4       0x28 /opt/altera/nios2eds/bin/gnu/H-i686-pc-linux-gnu/bin/../lib/gcc/nios2-elf/4.1.2/../../../../nios2-elf/lib/mno-hw-mul/libc.a(lib_a-mallocr.o)
                0x0081a5c4                __malloc_current_mallinfo
 .bss           0x0081a5ec        0x0 /opt/altera/nios2eds/bin/gnu/H-i686-pc-linux-gnu/bin/../lib/gcc/nios2-elf/4.1.2/../../../../nios2-elf/lib/mno-hw-mul/libc.a(lib_a-memchr.o)
 .bss           0x0081a5ec        0x0 /opt/altera/nios2eds/bin/gnu/H-i686-pc-linux-gnu/bin/../lib/gcc/nios2-elf/4.1.2/../../../../nios2-elf/lib/mno-hw-mul/libc.a(lib_a-memcpy.o)
 .bss           0x0081a5ec        0x0 /opt/altera/nios2eds/bin/gnu/H-i686-pc-linux-gnu/bin/../lib/gcc/nios2-elf/4.1.2/../../../../nios2-elf/lib/mno-hw-mul/libc.a(lib_a-memmove.o)
 .bss           0x0081a5ec        0x0 /opt/altera/nios2eds/bin/gnu/H-i686-pc-linux-gnu/bin/../lib/gcc/nios2-elf/4.1.2/../../../../nios2-elf/lib/mno-hw-mul/libc.a(lib_a-memset.o)
 .bss           0x0081a5ec        0x0 /opt/altera/nios2eds/bin/gnu/H-i686-pc-linux-gnu/bin/../lib/gcc/nios2-elf/4.1.2/../../../../nios2-elf/lib/mno-hw-mul/libc.a(lib_a-mprec.o)
 .bss           0x0081a5ec        0x0 /opt/altera/nios2eds/bin/gnu/H-i686-pc-linux-gnu/bin/../lib/gcc/nios2-elf/4.1.2/../../../../nios2-elf/lib/mno-hw-mul/libc.a(lib_a-reallocr.o)
 .bss           0x0081a5ec        0x0 /opt/altera/nios2eds/bin/gnu/H-i686-pc-linux-gnu/bin/../lib/gcc/nios2-elf/4.1.2/../../../../nios2-elf/lib/mno-hw-mul/libc.a(lib_a-s_isinfd.o)
 .bss           0x0081a5ec        0x0 /opt/altera/nios2eds/bin/gnu/H-i686-pc-linux-gnu/bin/../lib/gcc/nios2-elf/4.1.2/../../../../nios2-elf/lib/mno-hw-mul/libc.a(lib_a-s_isnand.o)
 .bss           0x0081a5ec        0x0 /opt/altera/nios2eds/bin/gnu/H-i686-pc-linux-gnu/bin/../lib/gcc/nios2-elf/4.1.2/../../../../nios2-elf/lib/mno-hw-mul/libc.a(lib_a-sbrkr.o)
 .bss           0x0081a5ec        0x0 /opt/altera/nios2eds/bin/gnu/H-i686-pc-linux-gnu/bin/../lib/gcc/nios2-elf/4.1.2/../../../../nios2-elf/lib/mno-hw-mul/libc.a(lib_a-stdio.o)
 .bss           0x0081a5ec        0x0 /opt/altera/nios2eds/bin/gnu/H-i686-pc-linux-gnu/bin/../lib/gcc/nios2-elf/4.1.2/../../../../nios2-elf/lib/mno-hw-mul/libc.a(lib_a-strcmp.o)
 .bss           0x0081a5ec        0x0 /opt/altera/nios2eds/bin/gnu/H-i686-pc-linux-gnu/bin/../lib/gcc/nios2-elf/4.1.2/../../../../nios2-elf/lib/mno-hw-mul/libc.a(lib_a-writer.o)
 .bss           0x0081a5ec        0x0 /opt/altera/nios2eds/bin/gnu/H-i686-pc-linux-gnu/bin/../lib/gcc/nios2-elf/4.1.2/../../../../nios2-elf/lib/mno-hw-mul/libc.a(lib_a-callocr.o)
 .bss           0x0081a5ec        0x0 /opt/altera/nios2eds/bin/gnu/H-i686-pc-linux-gnu/bin/../lib/gcc/nios2-elf/4.1.2/../../../../nios2-elf/lib/mno-hw-mul/libc.a(lib_a-closer.o)
 .bss           0x0081a5ec        0x0 /opt/altera/nios2eds/bin/gnu/H-i686-pc-linux-gnu/bin/../lib/gcc/nios2-elf/4.1.2/../../../../nios2-elf/lib/mno-hw-mul/libc.a(lib_a-fclose.o)
 .bss           0x0081a5ec        0x0 /opt/altera/nios2eds/bin/gnu/H-i686-pc-linux-gnu/bin/../lib/gcc/nios2-elf/4.1.2/../../../../nios2-elf/lib/mno-hw-mul/libc.a(lib_a-fstatr.o)
 .bss           0x0081a5ec        0x0 /opt/altera/nios2eds/bin/gnu/H-i686-pc-linux-gnu/bin/../lib/gcc/nios2-elf/4.1.2/../../../../nios2-elf/lib/mno-hw-mul/libc.a(lib_a-int_errno.o)
 .bss           0x0081a5ec        0x0 /opt/altera/nios2eds/bin/gnu/H-i686-pc-linux-gnu/bin/../lib/gcc/nios2-elf/4.1.2/../../../../nios2-elf/lib/mno-hw-mul/libc.a(lib_a-isattyr.o)
 .bss           0x0081a5ec        0x0 /opt/altera/nios2eds/bin/gnu/H-i686-pc-linux-gnu/bin/../lib/gcc/nios2-elf/4.1.2/../../../../nios2-elf/lib/mno-hw-mul/libc.a(lib_a-lseekr.o)
 .bss           0x0081a5ec        0x0 /opt/altera/nios2eds/bin/gnu/H-i686-pc-linux-gnu/bin/../lib/gcc/nios2-elf/4.1.2/../../../../nios2-elf/lib/mno-hw-mul/libc.a(lib_a-readr.o)
 .bss           0x0081a5ec        0x0 /opt/altera/nios2eds/bin/gnu/H-i686-pc-linux-gnu/bin/../lib/gcc/nios2-elf/4.1.2/mno-hw-mul/libgcc.a(_udivdi3.o)
 .bss           0x0081a5ec        0x0 /opt/altera/nios2eds/bin/gnu/H-i686-pc-linux-gnu/bin/../lib/gcc/nios2-elf/4.1.2/mno-hw-mul/libgcc.a(_umoddi3.o)
 .bss           0x0081a5ec        0x0 /opt/altera/nios2eds/bin/gnu/H-i686-pc-linux-gnu/bin/../lib/gcc/nios2-elf/4.1.2/mno-hw-mul/libgcc.a(_addsub_df.o)
 .bss           0x0081a5ec        0x0 /opt/altera/nios2eds/bin/gnu/H-i686-pc-linux-gnu/bin/../lib/gcc/nios2-elf/4.1.2/mno-hw-mul/libgcc.a(_mul_df.o)
 .bss           0x0081a5ec        0x0 /opt/altera/nios2eds/bin/gnu/H-i686-pc-linux-gnu/bin/../lib/gcc/nios2-elf/4.1.2/mno-hw-mul/libgcc.a(_div_df.o)
 .bss           0x0081a5ec        0x0 /opt/altera/nios2eds/bin/gnu/H-i686-pc-linux-gnu/bin/../lib/gcc/nios2-elf/4.1.2/mno-hw-mul/libgcc.a(_eq_df.o)
 .bss           0x0081a5ec        0x0 /opt/altera/nios2eds/bin/gnu/H-i686-pc-linux-gnu/bin/../lib/gcc/nios2-elf/4.1.2/mno-hw-mul/libgcc.a(_ne_df.o)
 .bss           0x0081a5ec        0x0 /opt/altera/nios2eds/bin/gnu/H-i686-pc-linux-gnu/bin/../lib/gcc/nios2-elf/4.1.2/mno-hw-mul/libgcc.a(_gt_df.o)
 .bss           0x0081a5ec        0x0 /opt/altera/nios2eds/bin/gnu/H-i686-pc-linux-gnu/bin/../lib/gcc/nios2-elf/4.1.2/mno-hw-mul/libgcc.a(_ge_df.o)
 .bss           0x0081a5ec        0x0 /opt/altera/nios2eds/bin/gnu/H-i686-pc-linux-gnu/bin/../lib/gcc/nios2-elf/4.1.2/mno-hw-mul/libgcc.a(_lt_df.o)
 .bss           0x0081a5ec        0x0 /opt/altera/nios2eds/bin/gnu/H-i686-pc-linux-gnu/bin/../lib/gcc/nios2-elf/4.1.2/mno-hw-mul/libgcc.a(_si_to_df.o)
 .bss           0x0081a5ec        0x0 /opt/altera/nios2eds/bin/gnu/H-i686-pc-linux-gnu/bin/../lib/gcc/nios2-elf/4.1.2/mno-hw-mul/libgcc.a(_df_to_si.o)
 .bss           0x0081a5ec        0x0 /opt/altera/nios2eds/bin/gnu/H-i686-pc-linux-gnu/bin/../lib/gcc/nios2-elf/4.1.2/mno-hw-mul/libgcc.a(_thenan_df.o)
 .bss           0x0081a5ec        0x0 /opt/altera/nios2eds/bin/gnu/H-i686-pc-linux-gnu/bin/../lib/gcc/nios2-elf/4.1.2/mno-hw-mul/libgcc.a(_usi_to_df.o)
 .bss           0x0081a5ec        0x0 /opt/altera/nios2eds/bin/gnu/H-i686-pc-linux-gnu/bin/../lib/gcc/nios2-elf/4.1.2/mno-hw-mul/libgcc.a(lib2-mul.o)
 .bss           0x0081a5ec        0x0 /opt/altera/nios2eds/bin/gnu/H-i686-pc-linux-gnu/bin/../lib/gcc/nios2-elf/4.1.2/mno-hw-mul/libgcc.a(_muldi3.o)
 .bss           0x0081a5ec        0x0 /opt/altera/nios2eds/bin/gnu/H-i686-pc-linux-gnu/bin/../lib/gcc/nios2-elf/4.1.2/mno-hw-mul/libgcc.a(_clz.o)
 .bss           0x0081a5ec        0x0 /opt/altera/nios2eds/bin/gnu/H-i686-pc-linux-gnu/bin/../lib/gcc/nios2-elf/4.1.2/mno-hw-mul/libgcc.a(_clzsi2.o)
 .bss           0x0081a5ec        0x0 /opt/altera/nios2eds/bin/gnu/H-i686-pc-linux-gnu/bin/../lib/gcc/nios2-elf/4.1.2/mno-hw-mul/libgcc.a(_pack_df.o)
 .bss           0x0081a5ec        0x0 /opt/altera/nios2eds/bin/gnu/H-i686-pc-linux-gnu/bin/../lib/gcc/nios2-elf/4.1.2/mno-hw-mul/libgcc.a(_unpack_df.o)
 .bss           0x0081a5ec        0x0 /opt/altera/nios2eds/bin/gnu/H-i686-pc-linux-gnu/bin/../lib/gcc/nios2-elf/4.1.2/mno-hw-mul/libgcc.a(_fpcmp_parts_df.o)
 .bss           0x0081a5ec        0x0 ../de1_ucosii_tutorial_bsp//libucosii_bsp.a(alt_close.o)
 .bss           0x0081a5ec        0x0 ../de1_ucosii_tutorial_bsp//libucosii_bsp.a(alt_dev.o)
 .bss           0x0081a5ec        0x0 ../de1_ucosii_tutorial_bsp//libucosii_bsp.a(alt_errno.o)
 .bss           0x0081a5ec        0x0 ../de1_ucosii_tutorial_bsp//libucosii_bsp.a(alt_exit.o)
 .bss           0x0081a5ec        0x0 ../de1_ucosii_tutorial_bsp//libucosii_bsp.a(alt_fstat.o)
 .bss           0x0081a5ec        0x0 ../de1_ucosii_tutorial_bsp//libucosii_bsp.a(alt_isatty.o)
 .bss           0x0081a5ec        0x0 ../de1_ucosii_tutorial_bsp//libucosii_bsp.a(alt_load.o)
 .bss           0x0081a5ec        0x0 ../de1_ucosii_tutorial_bsp//libucosii_bsp.a(alt_lseek.o)
 .bss           0x0081a5ec        0x0 ../de1_ucosii_tutorial_bsp//libucosii_bsp.a(alt_main.o)
 .bss           0x0081a5ec        0x0 ../de1_ucosii_tutorial_bsp//libucosii_bsp.a(alt_read.o)
 .bss           0x0081a5ec        0x0 ../de1_ucosii_tutorial_bsp//libucosii_bsp.a(alt_release_fd.o)
 .bss           0x0081a5ec        0x0 ../de1_ucosii_tutorial_bsp//libucosii_bsp.a(alt_sbrk.o)
 .bss           0x0081a5ec        0x0 ../de1_ucosii_tutorial_bsp//libucosii_bsp.a(alt_write.o)
 .bss           0x0081a5ec        0x0 ../de1_ucosii_tutorial_bsp//libucosii_bsp.a(alt_env_lock.o)
 .bss           0x0081a5ec        0x0 ../de1_ucosii_tutorial_bsp//libucosii_bsp.a(alt_malloc_lock.o)
 .bss           0x0081a5ec        0x0 ../de1_ucosii_tutorial_bsp//libucosii_bsp.a(os_core.o)
 .bss           0x0081a5ec        0x0 ../de1_ucosii_tutorial_bsp//libucosii_bsp.a(os_dbg.o)
 .bss           0x0081a5ec        0x0 ../de1_ucosii_tutorial_bsp//libucosii_bsp.a(os_flag.o)
 .bss           0x0081a5ec        0x0 ../de1_ucosii_tutorial_bsp//libucosii_bsp.a(os_mem.o)
 .bss           0x0081a5ec        0x0 ../de1_ucosii_tutorial_bsp//libucosii_bsp.a(os_q.o)
 .bss           0x0081a5ec        0x0 ../de1_ucosii_tutorial_bsp//libucosii_bsp.a(os_sem.o)
 .bss           0x0081a5ec        0x0 ../de1_ucosii_tutorial_bsp//libucosii_bsp.a(os_task.o)
 .bss           0x0081a5ec        0x0 ../de1_ucosii_tutorial_bsp//libucosii_bsp.a(os_time.o)
 .bss           0x0081a5ec        0x0 ../de1_ucosii_tutorial_bsp//libucosii_bsp.a(alt_sys_init.o)
 .bss           0x0081a5ec        0x0 ../de1_ucosii_tutorial_bsp//libucosii_bsp.a(altera_avalon_jtag_uart_fd.o)
 .bss           0x0081a5ec        0x0 ../de1_ucosii_tutorial_bsp//libucosii_bsp.a(altera_avalon_jtag_uart_init.o)
 .bss           0x0081a5ec        0x0 ../de1_ucosii_tutorial_bsp//libucosii_bsp.a(altera_avalon_jtag_uart_ioctl.o)
 .bss           0x0081a5ec        0x0 ../de1_ucosii_tutorial_bsp//libucosii_bsp.a(altera_avalon_jtag_uart_read.o)
 .bss           0x0081a5ec        0x0 ../de1_ucosii_tutorial_bsp//libucosii_bsp.a(altera_avalon_jtag_uart_write.o)
 .bss           0x0081a5ec        0x0 ../de1_ucosii_tutorial_bsp//libucosii_bsp.a(altera_avalon_timer_sc.o)
 .bss           0x0081a5ec        0x0 ../de1_ucosii_tutorial_bsp//libucosii_bsp.a(alt_alarm_start.o)
 .bss           0x0081a5ec        0x0 ../de1_ucosii_tutorial_bsp//libucosii_bsp.a(alt_dcache_flush_all.o)
 .bss           0x0081a5ec        0x0 ../de1_ucosii_tutorial_bsp//libucosii_bsp.a(alt_dev_llist_insert.o)
 .bss           0x0081a5ec        0x0 ../de1_ucosii_tutorial_bsp//libucosii_bsp.a(alt_do_ctors.o)
 .bss           0x0081a5ec        0x0 ../de1_ucosii_tutorial_bsp//libucosii_bsp.a(alt_do_dtors.o)
 .bss           0x0081a5ec        0x0 ../de1_ucosii_tutorial_bsp//libucosii_bsp.a(alt_icache_flush_all.o)
 .bss           0x0081a5ec        0x0 ../de1_ucosii_tutorial_bsp//libucosii_bsp.a(alt_iic.o)
 .bss           0x0081a5ec        0x0 ../de1_ucosii_tutorial_bsp//libucosii_bsp.a(alt_iic_isr_register.o)
 .bss           0x0081a5ec        0x0 ../de1_ucosii_tutorial_bsp//libucosii_bsp.a(alt_io_redirect.o)
 .bss           0x0081a5ec        0x0 ../de1_ucosii_tutorial_bsp//libucosii_bsp.a(alt_irq_entry.o)
 .bss           0x0081a5ec        0x0 ../de1_ucosii_tutorial_bsp//libucosii_bsp.a(alt_irq_handler.o)
 .bss           0x0081a5ec        0x0 ../de1_ucosii_tutorial_bsp//libucosii_bsp.a(alt_irq_vars.o)
 .bss           0x0081a5ec        0x0 ../de1_ucosii_tutorial_bsp//libucosii_bsp.a(alt_open.o)
 .bss           0x0081a5ec        0x0 ../de1_ucosii_tutorial_bsp//libucosii_bsp.a(alt_tick.o)
 .bss           0x0081a5ec        0x0 ../de1_ucosii_tutorial_bsp//libucosii_bsp.a(altera_nios2_qsys_irq.o)
 .bss           0x0081a5ec        0x0 ../de1_ucosii_tutorial_bsp//libucosii_bsp.a(os_cpu_a.o)
 .bss           0x0081a5ec        0x0 ../de1_ucosii_tutorial_bsp//libucosii_bsp.a(os_cpu_c.o)
 .bss           0x0081a5ec        0x0 ../de1_ucosii_tutorial_bsp//libucosii_bsp.a(alt_exception_entry.o)
 .bss           0x0081a5ec        0x0 ../de1_ucosii_tutorial_bsp//libucosii_bsp.a(alt_find_dev.o)
 .bss           0x0081a5ec        0x0 ../de1_ucosii_tutorial_bsp//libucosii_bsp.a(alt_find_file.o)
 .bss           0x0081a5ec        0x0 ../de1_ucosii_tutorial_bsp//libucosii_bsp.a(alt_get_fd.o)
 .bss           0x0081a5ec        0x0 /opt/altera/nios2eds/bin/gnu/H-i686-pc-linux-gnu/bin/../lib/gcc/nios2-elf/4.1.2/../../../../nios2-elf/lib/mno-hw-mul/libc.a(lib_a-atexit.o)
 .bss           0x0081a5ec        0x0 /opt/altera/nios2eds/bin/gnu/H-i686-pc-linux-gnu/bin/../lib/gcc/nios2-elf/4.1.2/../../../../nios2-elf/lib/mno-hw-mul/libc.a(lib_a-memcmp.o)
 .bss           0x0081a5ec        0x0 /opt/altera/nios2eds/bin/gnu/H-i686-pc-linux-gnu/bin/../lib/gcc/nios2-elf/4.1.2/../../../../nios2-elf/lib/mno-hw-mul/libc.a(lib_a-__atexit.o)
 *(COMMON)
 COMMON         0x0081a5ec     0x4014 obj/default/producer_consumer.o
                0x0081a5ec                producer_stk
                0x0081c5ec                consumer_stk
                0x0081e5ec                ringBuffer
 COMMON         0x0081e600     0x3224 ../de1_ucosii_tutorial_bsp//libucosii_bsp.a(os_core.o)
                0x0081e600                OSFlagTbl
                0x0081e970                OSMemTbl
                0x0081f5a0                OSTaskStatStk
                0x0081fda0                OSQTbl
                0x0081ff80                OSTaskIdleStk
                0x00820780                OSEventTbl
                0x008212c0                OSTCBTbl
                0x008217d0                OSTCBPrioTbl
 COMMON         0x00821824      0x100 ../de1_ucosii_tutorial_bsp//libucosii_bsp.a(alt_irq_handler.o)
                0x00821824                alt_irq
 COMMON         0x00821924      0x190 /opt/altera/nios2eds/bin/gnu/H-i686-pc-linux-gnu/bin/../lib/gcc/nios2-elf/4.1.2/../../../../nios2-elf/lib/mno-hw-mul/libc.a(lib_a-atexit.o)
                0x00821924                _atexit0
                0x00821ab4                . = ALIGN (0x4)
                0x00821ab4                __bss_end = ABSOLUTE (.)

.sdram_0        0x00821ab4        0x0
                0x00821ab4                PROVIDE (_alt_partition_sdram_0_start, ABSOLUTE (.))
 *(.sdram_0. sdram_0.*)
                0x00821ab4                . = ALIGN (0x4)
                0x00821ab4                PROVIDE (_alt_partition_sdram_0_end, ABSOLUTE (.))
                0x00821ab4                _end = ABSOLUTE (.)
                0x00821ab4                end = ABSOLUTE (.)
                0x00821ab4                __alt_stack_base = ABSOLUTE (.)
                0x00821ab4                PROVIDE (_alt_partition_sdram_0_load_addr, LOADADDR (.sdram_0))

.onchip_memory2_0
                0x01001000        0x0 load address 0x00821ab4
                0x01001000                PROVIDE (_alt_partition_onchip_memory2_0_start, ABSOLUTE (.))
 *(.onchip_memory2_0. onchip_memory2_0.*)
                0x01001000                . = ALIGN (0x4)
                0x01001000                PROVIDE (_alt_partition_onchip_memory2_0_end, ABSOLUTE (.))
                0x00821ab4                PROVIDE (_alt_partition_onchip_memory2_0_load_addr, LOADADDR (.onchip_memory2_0))

.stab
 *(.stab)

.stabstr
 *(.stabstr)

.stab.excl
 *(.stab.excl)

.stab.exclstr
 *(.stab.exclstr)

.stab.index
 *(.stab.index)

.stab.indexstr
 *(.stab.indexstr)

.comment        0x00000000       0x23
 *(.comment)
 .comment       0x00000000       0x23 obj/default/alt_ucosii_simple_error_check.o
                                 0x24 (size before relaxing)
 .comment       0x00000000       0x24 obj/default/producer_consumer.o
 .comment       0x00000000       0x24 /opt/altera/nios2eds/bin/gnu/H-i686-pc-linux-gnu/bin/../lib/gcc/nios2-elf/4.1.2/mno-hw-mul/libgcc.a(lib2-divmod.o)
 .comment       0x00000000       0x24 /opt/altera/nios2eds/bin/gnu/H-i686-pc-linux-gnu/bin/../lib/gcc/nios2-elf/4.1.2/../../../../nios2-elf/lib/mno-hw-mul/libc.a(lib_a-exit.o)
 .comment       0x00000000       0x24 /opt/altera/nios2eds/bin/gnu/H-i686-pc-linux-gnu/bin/../lib/gcc/nios2-elf/4.1.2/../../../../nios2-elf/lib/mno-hw-mul/libc.a(lib_a-fprintf.o)
 .comment       0x00000000       0x24 /opt/altera/nios2eds/bin/gnu/H-i686-pc-linux-gnu/bin/../lib/gcc/nios2-elf/4.1.2/../../../../nios2-elf/lib/mno-hw-mul/libc.a(lib_a-fwrite.o)
 .comment       0x00000000       0x24 /opt/altera/nios2eds/bin/gnu/H-i686-pc-linux-gnu/bin/../lib/gcc/nios2-elf/4.1.2/../../../../nios2-elf/lib/mno-hw-mul/libc.a(lib_a-impure.o)
 .comment       0x00000000       0x24 /opt/altera/nios2eds/bin/gnu/H-i686-pc-linux-gnu/bin/../lib/gcc/nios2-elf/4.1.2/../../../../nios2-elf/lib/mno-hw-mul/libc.a(lib_a-printf.o)
 .comment       0x00000000       0x24 /opt/altera/nios2eds/bin/gnu/H-i686-pc-linux-gnu/bin/../lib/gcc/nios2-elf/4.1.2/../../../../nios2-elf/lib/mno-hw-mul/libc.a(lib_a-puts.o)
 .comment       0x00000000       0x24 /opt/altera/nios2eds/bin/gnu/H-i686-pc-linux-gnu/bin/../lib/gcc/nios2-elf/4.1.2/../../../../nios2-elf/lib/mno-hw-mul/libc.a(lib_a-strlen.o)
 .comment       0x00000000       0x24 /opt/altera/nios2eds/bin/gnu/H-i686-pc-linux-gnu/bin/../lib/gcc/nios2-elf/4.1.2/../../../../nios2-elf/lib/mno-hw-mul/libc.a(lib_a-vfprintf.o)
 .comment       0x00000000       0x24 /opt/altera/nios2eds/bin/gnu/H-i686-pc-linux-gnu/bin/../lib/gcc/nios2-elf/4.1.2/../../../../nios2-elf/lib/mno-hw-mul/libc.a(lib_a-wsetup.o)
 .comment       0x00000000       0x24 /opt/altera/nios2eds/bin/gnu/H-i686-pc-linux-gnu/bin/../lib/gcc/nios2-elf/4.1.2/../../../../nios2-elf/lib/mno-hw-mul/libc.a(lib_a-__call_atexit.o)
 .comment       0x00000000       0x24 /opt/altera/nios2eds/bin/gnu/H-i686-pc-linux-gnu/bin/../lib/gcc/nios2-elf/4.1.2/../../../../nios2-elf/lib/mno-hw-mul/libc.a(lib_a-dtoa.o)
 .comment       0x00000000       0x24 /opt/altera/nios2eds/bin/gnu/H-i686-pc-linux-gnu/bin/../lib/gcc/nios2-elf/4.1.2/../../../../nios2-elf/lib/mno-hw-mul/libc.a(lib_a-fflush.o)
 .comment       0x00000000       0x24 /opt/altera/nios2eds/bin/gnu/H-i686-pc-linux-gnu/bin/../lib/gcc/nios2-elf/4.1.2/../../../../nios2-elf/lib/mno-hw-mul/libc.a(lib_a-findfp.o)
 .comment       0x00000000       0x24 /opt/altera/nios2eds/bin/gnu/H-i686-pc-linux-gnu/bin/../lib/gcc/nios2-elf/4.1.2/../../../../nios2-elf/lib/mno-hw-mul/libc.a(lib_a-freer.o)
 .comment       0x00000000       0x24 /opt/altera/nios2eds/bin/gnu/H-i686-pc-linux-gnu/bin/../lib/gcc/nios2-elf/4.1.2/../../../../nios2-elf/lib/mno-hw-mul/libc.a(lib_a-fvwrite.o)
 .comment       0x00000000       0x24 /opt/altera/nios2eds/bin/gnu/H-i686-pc-linux-gnu/bin/../lib/gcc/nios2-elf/4.1.2/../../../../nios2-elf/lib/mno-hw-mul/libc.a(lib_a-fwalk.o)
 .comment       0x00000000       0x24 /opt/altera/nios2eds/bin/gnu/H-i686-pc-linux-gnu/bin/../lib/gcc/nios2-elf/4.1.2/../../../../nios2-elf/lib/mno-hw-mul/libc.a(lib_a-locale.o)
 .comment       0x00000000       0x24 /opt/altera/nios2eds/bin/gnu/H-i686-pc-linux-gnu/bin/../lib/gcc/nios2-elf/4.1.2/../../../../nios2-elf/lib/mno-hw-mul/libc.a(lib_a-makebuf.o)
 .comment       0x00000000       0x24 /opt/altera/nios2eds/bin/gnu/H-i686-pc-linux-gnu/bin/../lib/gcc/nios2-elf/4.1.2/../../../../nios2-elf/lib/mno-hw-mul/libc.a(lib_a-mallocr.o)
 .comment       0x00000000       0x24 /opt/altera/nios2eds/bin/gnu/H-i686-pc-linux-gnu/bin/../lib/gcc/nios2-elf/4.1.2/../../../../nios2-elf/lib/mno-hw-mul/libc.a(lib_a-memchr.o)
 .comment       0x00000000       0x24 /opt/altera/nios2eds/bin/gnu/H-i686-pc-linux-gnu/bin/../lib/gcc/nios2-elf/4.1.2/../../../../nios2-elf/lib/mno-hw-mul/libc.a(lib_a-memcpy.o)
 .comment       0x00000000       0x24 /opt/altera/nios2eds/bin/gnu/H-i686-pc-linux-gnu/bin/../lib/gcc/nios2-elf/4.1.2/../../../../nios2-elf/lib/mno-hw-mul/libc.a(lib_a-memmove.o)
 .comment       0x00000000       0x24 /opt/altera/nios2eds/bin/gnu/H-i686-pc-linux-gnu/bin/../lib/gcc/nios2-elf/4.1.2/../../../../nios2-elf/lib/mno-hw-mul/libc.a(lib_a-memset.o)
 .comment       0x00000000       0x24 /opt/altera/nios2eds/bin/gnu/H-i686-pc-linux-gnu/bin/../lib/gcc/nios2-elf/4.1.2/../../../../nios2-elf/lib/mno-hw-mul/libc.a(lib_a-mprec.o)
 .comment       0x00000000       0x24 /opt/altera/nios2eds/bin/gnu/H-i686-pc-linux-gnu/bin/../lib/gcc/nios2-elf/4.1.2/../../../../nios2-elf/lib/mno-hw-mul/libc.a(lib_a-reallocr.o)
 .comment       0x00000000       0x24 /opt/altera/nios2eds/bin/gnu/H-i686-pc-linux-gnu/bin/../lib/gcc/nios2-elf/4.1.2/../../../../nios2-elf/lib/mno-hw-mul/libc.a(lib_a-s_isinfd.o)
 .comment       0x00000000       0x24 /opt/altera/nios2eds/bin/gnu/H-i686-pc-linux-gnu/bin/../lib/gcc/nios2-elf/4.1.2/../../../../nios2-elf/lib/mno-hw-mul/libc.a(lib_a-s_isnand.o)
 .comment       0x00000000       0x24 /opt/altera/nios2eds/bin/gnu/H-i686-pc-linux-gnu/bin/../lib/gcc/nios2-elf/4.1.2/../../../../nios2-elf/lib/mno-hw-mul/libc.a(lib_a-sbrkr.o)
 .comment       0x00000000       0x24 /opt/altera/nios2eds/bin/gnu/H-i686-pc-linux-gnu/bin/../lib/gcc/nios2-elf/4.1.2/../../../../nios2-elf/lib/mno-hw-mul/libc.a(lib_a-stdio.o)
 .comment       0x00000000       0x24 /opt/altera/nios2eds/bin/gnu/H-i686-pc-linux-gnu/bin/../lib/gcc/nios2-elf/4.1.2/../../../../nios2-elf/lib/mno-hw-mul/libc.a(lib_a-strcmp.o)
 .comment       0x00000000       0x24 /opt/altera/nios2eds/bin/gnu/H-i686-pc-linux-gnu/bin/../lib/gcc/nios2-elf/4.1.2/../../../../nios2-elf/lib/mno-hw-mul/libc.a(lib_a-writer.o)
 .comment       0x00000000       0x24 /opt/altera/nios2eds/bin/gnu/H-i686-pc-linux-gnu/bin/../lib/gcc/nios2-elf/4.1.2/../../../../nios2-elf/lib/mno-hw-mul/libc.a(lib_a-callocr.o)
 .comment       0x00000000       0x24 /opt/altera/nios2eds/bin/gnu/H-i686-pc-linux-gnu/bin/../lib/gcc/nios2-elf/4.1.2/../../../../nios2-elf/lib/mno-hw-mul/libc.a(lib_a-closer.o)
 .comment       0x00000000       0x24 /opt/altera/nios2eds/bin/gnu/H-i686-pc-linux-gnu/bin/../lib/gcc/nios2-elf/4.1.2/../../../../nios2-elf/lib/mno-hw-mul/libc.a(lib_a-fclose.o)
 .comment       0x00000000       0x24 /opt/altera/nios2eds/bin/gnu/H-i686-pc-linux-gnu/bin/../lib/gcc/nios2-elf/4.1.2/../../../../nios2-elf/lib/mno-hw-mul/libc.a(lib_a-fstatr.o)
 .comment       0x00000000       0x24 /opt/altera/nios2eds/bin/gnu/H-i686-pc-linux-gnu/bin/../lib/gcc/nios2-elf/4.1.2/../../../../nios2-elf/lib/mno-hw-mul/libc.a(lib_a-int_errno.o)
 .comment       0x00000000       0x24 /opt/altera/nios2eds/bin/gnu/H-i686-pc-linux-gnu/bin/../lib/gcc/nios2-elf/4.1.2/../../../../nios2-elf/lib/mno-hw-mul/libc.a(lib_a-isattyr.o)
 .comment       0x00000000       0x24 /opt/altera/nios2eds/bin/gnu/H-i686-pc-linux-gnu/bin/../lib/gcc/nios2-elf/4.1.2/../../../../nios2-elf/lib/mno-hw-mul/libc.a(lib_a-lseekr.o)
 .comment       0x00000000       0x24 /opt/altera/nios2eds/bin/gnu/H-i686-pc-linux-gnu/bin/../lib/gcc/nios2-elf/4.1.2/../../../../nios2-elf/lib/mno-hw-mul/libc.a(lib_a-readr.o)
 .comment       0x00000000       0x24 /opt/altera/nios2eds/bin/gnu/H-i686-pc-linux-gnu/bin/../lib/gcc/nios2-elf/4.1.2/mno-hw-mul/libgcc.a(_udivdi3.o)
 .comment       0x00000000       0x24 /opt/altera/nios2eds/bin/gnu/H-i686-pc-linux-gnu/bin/../lib/gcc/nios2-elf/4.1.2/mno-hw-mul/libgcc.a(_umoddi3.o)
 .comment       0x00000000       0x24 /opt/altera/nios2eds/bin/gnu/H-i686-pc-linux-gnu/bin/../lib/gcc/nios2-elf/4.1.2/mno-hw-mul/libgcc.a(_addsub_df.o)
 .comment       0x00000000       0x24 /opt/altera/nios2eds/bin/gnu/H-i686-pc-linux-gnu/bin/../lib/gcc/nios2-elf/4.1.2/mno-hw-mul/libgcc.a(_mul_df.o)
 .comment       0x00000000       0x24 /opt/altera/nios2eds/bin/gnu/H-i686-pc-linux-gnu/bin/../lib/gcc/nios2-elf/4.1.2/mno-hw-mul/libgcc.a(_div_df.o)
 .comment       0x00000000       0x24 /opt/altera/nios2eds/bin/gnu/H-i686-pc-linux-gnu/bin/../lib/gcc/nios2-elf/4.1.2/mno-hw-mul/libgcc.a(_eq_df.o)
 .comment       0x00000000       0x24 /opt/altera/nios2eds/bin/gnu/H-i686-pc-linux-gnu/bin/../lib/gcc/nios2-elf/4.1.2/mno-hw-mul/libgcc.a(_ne_df.o)
 .comment       0x00000000       0x24 /opt/altera/nios2eds/bin/gnu/H-i686-pc-linux-gnu/bin/../lib/gcc/nios2-elf/4.1.2/mno-hw-mul/libgcc.a(_gt_df.o)
 .comment       0x00000000       0x24 /opt/altera/nios2eds/bin/gnu/H-i686-pc-linux-gnu/bin/../lib/gcc/nios2-elf/4.1.2/mno-hw-mul/libgcc.a(_ge_df.o)
 .comment       0x00000000       0x24 /opt/altera/nios2eds/bin/gnu/H-i686-pc-linux-gnu/bin/../lib/gcc/nios2-elf/4.1.2/mno-hw-mul/libgcc.a(_lt_df.o)
 .comment       0x00000000       0x24 /opt/altera/nios2eds/bin/gnu/H-i686-pc-linux-gnu/bin/../lib/gcc/nios2-elf/4.1.2/mno-hw-mul/libgcc.a(_si_to_df.o)
 .comment       0x00000000       0x24 /opt/altera/nios2eds/bin/gnu/H-i686-pc-linux-gnu/bin/../lib/gcc/nios2-elf/4.1.2/mno-hw-mul/libgcc.a(_df_to_si.o)
 .comment       0x00000000       0x24 /opt/altera/nios2eds/bin/gnu/H-i686-pc-linux-gnu/bin/../lib/gcc/nios2-elf/4.1.2/mno-hw-mul/libgcc.a(_thenan_df.o)
 .comment       0x00000000       0x24 /opt/altera/nios2eds/bin/gnu/H-i686-pc-linux-gnu/bin/../lib/gcc/nios2-elf/4.1.2/mno-hw-mul/libgcc.a(_usi_to_df.o)
 .comment       0x00000000       0x24 /opt/altera/nios2eds/bin/gnu/H-i686-pc-linux-gnu/bin/../lib/gcc/nios2-elf/4.1.2/mno-hw-mul/libgcc.a(lib2-mul.o)
 .comment       0x00000000       0x24 /opt/altera/nios2eds/bin/gnu/H-i686-pc-linux-gnu/bin/../lib/gcc/nios2-elf/4.1.2/mno-hw-mul/libgcc.a(_muldi3.o)
 .comment       0x00000000       0x24 /opt/altera/nios2eds/bin/gnu/H-i686-pc-linux-gnu/bin/../lib/gcc/nios2-elf/4.1.2/mno-hw-mul/libgcc.a(_clz.o)
 .comment       0x00000000       0x24 /opt/altera/nios2eds/bin/gnu/H-i686-pc-linux-gnu/bin/../lib/gcc/nios2-elf/4.1.2/mno-hw-mul/libgcc.a(_clzsi2.o)
 .comment       0x00000000       0x24 /opt/altera/nios2eds/bin/gnu/H-i686-pc-linux-gnu/bin/../lib/gcc/nios2-elf/4.1.2/mno-hw-mul/libgcc.a(_pack_df.o)
 .comment       0x00000000       0x24 /opt/altera/nios2eds/bin/gnu/H-i686-pc-linux-gnu/bin/../lib/gcc/nios2-elf/4.1.2/mno-hw-mul/libgcc.a(_unpack_df.o)
 .comment       0x00000000       0x24 /opt/altera/nios2eds/bin/gnu/H-i686-pc-linux-gnu/bin/../lib/gcc/nios2-elf/4.1.2/mno-hw-mul/libgcc.a(_fpcmp_parts_df.o)
 .comment       0x00000000       0x24 ../de1_ucosii_tutorial_bsp//libucosii_bsp.a(alt_close.o)
 .comment       0x00000000       0x24 ../de1_ucosii_tutorial_bsp//libucosii_bsp.a(alt_dev.o)
 .comment       0x00000000       0x24 ../de1_ucosii_tutorial_bsp//libucosii_bsp.a(alt_errno.o)
 .comment       0x00000000       0x24 ../de1_ucosii_tutorial_bsp//libucosii_bsp.a(alt_exit.o)
 .comment       0x00000000       0x24 ../de1_ucosii_tutorial_bsp//libucosii_bsp.a(alt_fstat.o)
 .comment       0x00000000       0x24 ../de1_ucosii_tutorial_bsp//libucosii_bsp.a(alt_isatty.o)
 .comment       0x00000000       0x24 ../de1_ucosii_tutorial_bsp//libucosii_bsp.a(alt_load.o)
 .comment       0x00000000       0x24 ../de1_ucosii_tutorial_bsp//libucosii_bsp.a(alt_lseek.o)
 .comment       0x00000000       0x24 ../de1_ucosii_tutorial_bsp//libucosii_bsp.a(alt_main.o)
 .comment       0x00000000       0x24 ../de1_ucosii_tutorial_bsp//libucosii_bsp.a(alt_read.o)
 .comment       0x00000000       0x24 ../de1_ucosii_tutorial_bsp//libucosii_bsp.a(alt_release_fd.o)
 .comment       0x00000000       0x24 ../de1_ucosii_tutorial_bsp//libucosii_bsp.a(alt_sbrk.o)
 .comment       0x00000000       0x24 ../de1_ucosii_tutorial_bsp//libucosii_bsp.a(alt_write.o)
 .comment       0x00000000       0x24 ../de1_ucosii_tutorial_bsp//libucosii_bsp.a(alt_env_lock.o)
 .comment       0x00000000       0x24 ../de1_ucosii_tutorial_bsp//libucosii_bsp.a(alt_malloc_lock.o)
 .comment       0x00000000       0x24 ../de1_ucosii_tutorial_bsp//libucosii_bsp.a(os_core.o)
 .comment       0x00000000       0x24 ../de1_ucosii_tutorial_bsp//libucosii_bsp.a(os_dbg.o)
 .comment       0x00000000       0x24 ../de1_ucosii_tutorial_bsp//libucosii_bsp.a(os_flag.o)
 .comment       0x00000000       0x24 ../de1_ucosii_tutorial_bsp//libucosii_bsp.a(os_mem.o)
 .comment       0x00000000       0x24 ../de1_ucosii_tutorial_bsp//libucosii_bsp.a(os_q.o)
 .comment       0x00000000       0x24 ../de1_ucosii_tutorial_bsp//libucosii_bsp.a(os_sem.o)
 .comment       0x00000000       0x24 ../de1_ucosii_tutorial_bsp//libucosii_bsp.a(os_task.o)
 .comment       0x00000000       0x24 ../de1_ucosii_tutorial_bsp//libucosii_bsp.a(os_time.o)
 .comment       0x00000000       0x24 ../de1_ucosii_tutorial_bsp//libucosii_bsp.a(alt_sys_init.o)
 .comment       0x00000000       0x24 ../de1_ucosii_tutorial_bsp//libucosii_bsp.a(altera_avalon_jtag_uart_fd.o)
 .comment       0x00000000       0x24 ../de1_ucosii_tutorial_bsp//libucosii_bsp.a(altera_avalon_jtag_uart_init.o)
 .comment       0x00000000       0x24 ../de1_ucosii_tutorial_bsp//libucosii_bsp.a(altera_avalon_jtag_uart_ioctl.o)
 .comment       0x00000000       0x24 ../de1_ucosii_tutorial_bsp//libucosii_bsp.a(altera_avalon_jtag_uart_read.o)
 .comment       0x00000000       0x24 ../de1_ucosii_tutorial_bsp//libucosii_bsp.a(altera_avalon_jtag_uart_write.o)
 .comment       0x00000000       0x24 ../de1_ucosii_tutorial_bsp//libucosii_bsp.a(altera_avalon_timer_sc.o)
 .comment       0x00000000       0x24 ../de1_ucosii_tutorial_bsp//libucosii_bsp.a(alt_alarm_start.o)
 .comment       0x00000000       0x24 ../de1_ucosii_tutorial_bsp//libucosii_bsp.a(alt_dcache_flush_all.o)
 .comment       0x00000000       0x24 ../de1_ucosii_tutorial_bsp//libucosii_bsp.a(alt_dev_llist_insert.o)
 .comment       0x00000000       0x24 ../de1_ucosii_tutorial_bsp//libucosii_bsp.a(alt_do_ctors.o)
 .comment       0x00000000       0x24 ../de1_ucosii_tutorial_bsp//libucosii_bsp.a(alt_do_dtors.o)
 .comment       0x00000000       0x24 ../de1_ucosii_tutorial_bsp//libucosii_bsp.a(alt_icache_flush_all.o)
 .comment       0x00000000       0x24 ../de1_ucosii_tutorial_bsp//libucosii_bsp.a(alt_iic.o)
 .comment       0x00000000       0x24 ../de1_ucosii_tutorial_bsp//libucosii_bsp.a(alt_iic_isr_register.o)
 .comment       0x00000000       0x24 ../de1_ucosii_tutorial_bsp//libucosii_bsp.a(alt_io_redirect.o)
 .comment       0x00000000       0x24 ../de1_ucosii_tutorial_bsp//libucosii_bsp.a(alt_irq_handler.o)
 .comment       0x00000000       0x24 ../de1_ucosii_tutorial_bsp//libucosii_bsp.a(alt_irq_vars.o)
 .comment       0x00000000       0x24 ../de1_ucosii_tutorial_bsp//libucosii_bsp.a(alt_open.o)
 .comment       0x00000000       0x24 ../de1_ucosii_tutorial_bsp//libucosii_bsp.a(alt_tick.o)
 .comment       0x00000000       0x24 ../de1_ucosii_tutorial_bsp//libucosii_bsp.a(altera_nios2_qsys_irq.o)
 .comment       0x00000000       0x24 ../de1_ucosii_tutorial_bsp//libucosii_bsp.a(os_cpu_c.o)
 .comment       0x00000000       0x24 ../de1_ucosii_tutorial_bsp//libucosii_bsp.a(alt_find_dev.o)
 .comment       0x00000000       0x24 ../de1_ucosii_tutorial_bsp//libucosii_bsp.a(alt_find_file.o)
 .comment       0x00000000       0x24 ../de1_ucosii_tutorial_bsp//libucosii_bsp.a(alt_get_fd.o)
 .comment       0x00000000       0x24 /opt/altera/nios2eds/bin/gnu/H-i686-pc-linux-gnu/bin/../lib/gcc/nios2-elf/4.1.2/../../../../nios2-elf/lib/mno-hw-mul/libc.a(lib_a-atexit.o)
 .comment       0x00000000       0x24 /opt/altera/nios2eds/bin/gnu/H-i686-pc-linux-gnu/bin/../lib/gcc/nios2-elf/4.1.2/../../../../nios2-elf/lib/mno-hw-mul/libc.a(lib_a-memcmp.o)
 .comment       0x00000000       0x24 /opt/altera/nios2eds/bin/gnu/H-i686-pc-linux-gnu/bin/../lib/gcc/nios2-elf/4.1.2/../../../../nios2-elf/lib/mno-hw-mul/libc.a(lib_a-__atexit.o)

.debug
 *(.debug)

.line
 *(.line)

.debug_srcinfo
 *(.debug_srcinfo)

.debug_sfnames
 *(.debug_sfnames)

.debug_aranges  0x00000000      0xe38
 *(.debug_aranges)
 .debug_aranges
                0x00000000       0x28 ../de1_ucosii_tutorial_bsp//obj/HAL/src/crt0.o
 .debug_aranges
                0x00000028       0x20 obj/default/alt_ucosii_simple_error_check.o
 .debug_aranges
                0x00000048       0x20 obj/default/producer_consumer.o
 .debug_aranges
                0x00000068       0x20 /opt/altera/nios2eds/bin/gnu/H-i686-pc-linux-gnu/bin/../lib/gcc/nios2-elf/4.1.2/mno-hw-mul/libgcc.a(lib2-divmod.o)
 .debug_aranges
                0x00000088       0x20 /opt/altera/nios2eds/bin/gnu/H-i686-pc-linux-gnu/bin/../lib/gcc/nios2-elf/4.1.2/../../../../nios2-elf/lib/mno-hw-mul/libc.a(lib_a-exit.o)
 .debug_aranges
                0x000000a8       0x20 /opt/altera/nios2eds/bin/gnu/H-i686-pc-linux-gnu/bin/../lib/gcc/nios2-elf/4.1.2/../../../../nios2-elf/lib/mno-hw-mul/libc.a(lib_a-fprintf.o)
 .debug_aranges
                0x000000c8       0x20 /opt/altera/nios2eds/bin/gnu/H-i686-pc-linux-gnu/bin/../lib/gcc/nios2-elf/4.1.2/../../../../nios2-elf/lib/mno-hw-mul/libc.a(lib_a-fwrite.o)
 .debug_aranges
                0x000000e8       0x20 /opt/altera/nios2eds/bin/gnu/H-i686-pc-linux-gnu/bin/../lib/gcc/nios2-elf/4.1.2/../../../../nios2-elf/lib/mno-hw-mul/libc.a(lib_a-printf.o)
 .debug_aranges
                0x00000108       0x20 /opt/altera/nios2eds/bin/gnu/H-i686-pc-linux-gnu/bin/../lib/gcc/nios2-elf/4.1.2/../../../../nios2-elf/lib/mno-hw-mul/libc.a(lib_a-puts.o)
 .debug_aranges
                0x00000128       0x20 /opt/altera/nios2eds/bin/gnu/H-i686-pc-linux-gnu/bin/../lib/gcc/nios2-elf/4.1.2/../../../../nios2-elf/lib/mno-hw-mul/libc.a(lib_a-strlen.o)
 .debug_aranges
                0x00000148       0x20 /opt/altera/nios2eds/bin/gnu/H-i686-pc-linux-gnu/bin/../lib/gcc/nios2-elf/4.1.2/../../../../nios2-elf/lib/mno-hw-mul/libc.a(lib_a-vfprintf.o)
 .debug_aranges
                0x00000168       0x20 /opt/altera/nios2eds/bin/gnu/H-i686-pc-linux-gnu/bin/../lib/gcc/nios2-elf/4.1.2/../../../../nios2-elf/lib/mno-hw-mul/libc.a(lib_a-wsetup.o)
 .debug_aranges
                0x00000188       0x20 /opt/altera/nios2eds/bin/gnu/H-i686-pc-linux-gnu/bin/../lib/gcc/nios2-elf/4.1.2/../../../../nios2-elf/lib/mno-hw-mul/libc.a(lib_a-__call_atexit.o)
 .debug_aranges
                0x000001a8       0x20 /opt/altera/nios2eds/bin/gnu/H-i686-pc-linux-gnu/bin/../lib/gcc/nios2-elf/4.1.2/../../../../nios2-elf/lib/mno-hw-mul/libc.a(lib_a-dtoa.o)
 .debug_aranges
                0x000001c8       0x20 /opt/altera/nios2eds/bin/gnu/H-i686-pc-linux-gnu/bin/../lib/gcc/nios2-elf/4.1.2/../../../../nios2-elf/lib/mno-hw-mul/libc.a(lib_a-fflush.o)
 .debug_aranges
                0x000001e8       0x20 /opt/altera/nios2eds/bin/gnu/H-i686-pc-linux-gnu/bin/../lib/gcc/nios2-elf/4.1.2/../../../../nios2-elf/lib/mno-hw-mul/libc.a(lib_a-findfp.o)
 .debug_aranges
                0x00000208       0x20 /opt/altera/nios2eds/bin/gnu/H-i686-pc-linux-gnu/bin/../lib/gcc/nios2-elf/4.1.2/../../../../nios2-elf/lib/mno-hw-mul/libc.a(lib_a-freer.o)
 .debug_aranges
                0x00000228       0x20 /opt/altera/nios2eds/bin/gnu/H-i686-pc-linux-gnu/bin/../lib/gcc/nios2-elf/4.1.2/../../../../nios2-elf/lib/mno-hw-mul/libc.a(lib_a-fvwrite.o)
 .debug_aranges
                0x00000248       0x20 /opt/altera/nios2eds/bin/gnu/H-i686-pc-linux-gnu/bin/../lib/gcc/nios2-elf/4.1.2/../../../../nios2-elf/lib/mno-hw-mul/libc.a(lib_a-fwalk.o)
 .debug_aranges
                0x00000268       0x20 /opt/altera/nios2eds/bin/gnu/H-i686-pc-linux-gnu/bin/../lib/gcc/nios2-elf/4.1.2/../../../../nios2-elf/lib/mno-hw-mul/libc.a(lib_a-locale.o)
 .debug_aranges
                0x00000288       0x20 /opt/altera/nios2eds/bin/gnu/H-i686-pc-linux-gnu/bin/../lib/gcc/nios2-elf/4.1.2/../../../../nios2-elf/lib/mno-hw-mul/libc.a(lib_a-makebuf.o)
 .debug_aranges
                0x000002a8       0x20 /opt/altera/nios2eds/bin/gnu/H-i686-pc-linux-gnu/bin/../lib/gcc/nios2-elf/4.1.2/../../../../nios2-elf/lib/mno-hw-mul/libc.a(lib_a-mallocr.o)
 .debug_aranges
                0x000002c8       0x20 /opt/altera/nios2eds/bin/gnu/H-i686-pc-linux-gnu/bin/../lib/gcc/nios2-elf/4.1.2/../../../../nios2-elf/lib/mno-hw-mul/libc.a(lib_a-memchr.o)
 .debug_aranges
                0x000002e8       0x20 /opt/altera/nios2eds/bin/gnu/H-i686-pc-linux-gnu/bin/../lib/gcc/nios2-elf/4.1.2/../../../../nios2-elf/lib/mno-hw-mul/libc.a(lib_a-memcpy.o)
 .debug_aranges
                0x00000308       0x20 /opt/altera/nios2eds/bin/gnu/H-i686-pc-linux-gnu/bin/../lib/gcc/nios2-elf/4.1.2/../../../../nios2-elf/lib/mno-hw-mul/libc.a(lib_a-memmove.o)
 .debug_aranges
                0x00000328       0x20 /opt/altera/nios2eds/bin/gnu/H-i686-pc-linux-gnu/bin/../lib/gcc/nios2-elf/4.1.2/../../../../nios2-elf/lib/mno-hw-mul/libc.a(lib_a-memset.o)
 .debug_aranges
                0x00000348       0x20 /opt/altera/nios2eds/bin/gnu/H-i686-pc-linux-gnu/bin/../lib/gcc/nios2-elf/4.1.2/../../../../nios2-elf/lib/mno-hw-mul/libc.a(lib_a-mprec.o)
 .debug_aranges
                0x00000368       0x20 /opt/altera/nios2eds/bin/gnu/H-i686-pc-linux-gnu/bin/../lib/gcc/nios2-elf/4.1.2/../../../../nios2-elf/lib/mno-hw-mul/libc.a(lib_a-reallocr.o)
 .debug_aranges
                0x00000388       0x20 /opt/altera/nios2eds/bin/gnu/H-i686-pc-linux-gnu/bin/../lib/gcc/nios2-elf/4.1.2/../../../../nios2-elf/lib/mno-hw-mul/libc.a(lib_a-s_isinfd.o)
 .debug_aranges
                0x000003a8       0x20 /opt/altera/nios2eds/bin/gnu/H-i686-pc-linux-gnu/bin/../lib/gcc/nios2-elf/4.1.2/../../../../nios2-elf/lib/mno-hw-mul/libc.a(lib_a-s_isnand.o)
 .debug_aranges
                0x000003c8       0x20 /opt/altera/nios2eds/bin/gnu/H-i686-pc-linux-gnu/bin/../lib/gcc/nios2-elf/4.1.2/../../../../nios2-elf/lib/mno-hw-mul/libc.a(lib_a-sbrkr.o)
 .debug_aranges
                0x000003e8       0x20 /opt/altera/nios2eds/bin/gnu/H-i686-pc-linux-gnu/bin/../lib/gcc/nios2-elf/4.1.2/../../../../nios2-elf/lib/mno-hw-mul/libc.a(lib_a-stdio.o)
 .debug_aranges
                0x00000408       0x20 /opt/altera/nios2eds/bin/gnu/H-i686-pc-linux-gnu/bin/../lib/gcc/nios2-elf/4.1.2/../../../../nios2-elf/lib/mno-hw-mul/libc.a(lib_a-strcmp.o)
 .debug_aranges
                0x00000428       0x20 /opt/altera/nios2eds/bin/gnu/H-i686-pc-linux-gnu/bin/../lib/gcc/nios2-elf/4.1.2/../../../../nios2-elf/lib/mno-hw-mul/libc.a(lib_a-writer.o)
 .debug_aranges
                0x00000448       0x20 /opt/altera/nios2eds/bin/gnu/H-i686-pc-linux-gnu/bin/../lib/gcc/nios2-elf/4.1.2/../../../../nios2-elf/lib/mno-hw-mul/libc.a(lib_a-callocr.o)
 .debug_aranges
                0x00000468       0x20 /opt/altera/nios2eds/bin/gnu/H-i686-pc-linux-gnu/bin/../lib/gcc/nios2-elf/4.1.2/../../../../nios2-elf/lib/mno-hw-mul/libc.a(lib_a-closer.o)
 .debug_aranges
                0x00000488       0x20 /opt/altera/nios2eds/bin/gnu/H-i686-pc-linux-gnu/bin/../lib/gcc/nios2-elf/4.1.2/../../../../nios2-elf/lib/mno-hw-mul/libc.a(lib_a-fclose.o)
 .debug_aranges
                0x000004a8       0x20 /opt/altera/nios2eds/bin/gnu/H-i686-pc-linux-gnu/bin/../lib/gcc/nios2-elf/4.1.2/../../../../nios2-elf/lib/mno-hw-mul/libc.a(lib_a-fstatr.o)
 .debug_aranges
                0x000004c8       0x20 /opt/altera/nios2eds/bin/gnu/H-i686-pc-linux-gnu/bin/../lib/gcc/nios2-elf/4.1.2/../../../../nios2-elf/lib/mno-hw-mul/libc.a(lib_a-isattyr.o)
 .debug_aranges
                0x000004e8       0x20 /opt/altera/nios2eds/bin/gnu/H-i686-pc-linux-gnu/bin/../lib/gcc/nios2-elf/4.1.2/../../../../nios2-elf/lib/mno-hw-mul/libc.a(lib_a-lseekr.o)
 .debug_aranges
                0x00000508       0x20 /opt/altera/nios2eds/bin/gnu/H-i686-pc-linux-gnu/bin/../lib/gcc/nios2-elf/4.1.2/../../../../nios2-elf/lib/mno-hw-mul/libc.a(lib_a-readr.o)
 .debug_aranges
                0x00000528       0x20 /opt/altera/nios2eds/bin/gnu/H-i686-pc-linux-gnu/bin/../lib/gcc/nios2-elf/4.1.2/mno-hw-mul/libgcc.a(_udivdi3.o)
 .debug_aranges
                0x00000548       0x20 /opt/altera/nios2eds/bin/gnu/H-i686-pc-linux-gnu/bin/../lib/gcc/nios2-elf/4.1.2/mno-hw-mul/libgcc.a(_umoddi3.o)
 .debug_aranges
                0x00000568       0x20 /opt/altera/nios2eds/bin/gnu/H-i686-pc-linux-gnu/bin/../lib/gcc/nios2-elf/4.1.2/mno-hw-mul/libgcc.a(_addsub_df.o)
 .debug_aranges
                0x00000588       0x20 /opt/altera/nios2eds/bin/gnu/H-i686-pc-linux-gnu/bin/../lib/gcc/nios2-elf/4.1.2/mno-hw-mul/libgcc.a(_mul_df.o)
 .debug_aranges
                0x000005a8       0x20 /opt/altera/nios2eds/bin/gnu/H-i686-pc-linux-gnu/bin/../lib/gcc/nios2-elf/4.1.2/mno-hw-mul/libgcc.a(_div_df.o)
 .debug_aranges
                0x000005c8       0x20 /opt/altera/nios2eds/bin/gnu/H-i686-pc-linux-gnu/bin/../lib/gcc/nios2-elf/4.1.2/mno-hw-mul/libgcc.a(_eq_df.o)
 .debug_aranges
                0x000005e8       0x20 /opt/altera/nios2eds/bin/gnu/H-i686-pc-linux-gnu/bin/../lib/gcc/nios2-elf/4.1.2/mno-hw-mul/libgcc.a(_ne_df.o)
 .debug_aranges
                0x00000608       0x20 /opt/altera/nios2eds/bin/gnu/H-i686-pc-linux-gnu/bin/../lib/gcc/nios2-elf/4.1.2/mno-hw-mul/libgcc.a(_gt_df.o)
 .debug_aranges
                0x00000628       0x20 /opt/altera/nios2eds/bin/gnu/H-i686-pc-linux-gnu/bin/../lib/gcc/nios2-elf/4.1.2/mno-hw-mul/libgcc.a(_ge_df.o)
 .debug_aranges
                0x00000648       0x20 /opt/altera/nios2eds/bin/gnu/H-i686-pc-linux-gnu/bin/../lib/gcc/nios2-elf/4.1.2/mno-hw-mul/libgcc.a(_lt_df.o)
 .debug_aranges
                0x00000668       0x20 /opt/altera/nios2eds/bin/gnu/H-i686-pc-linux-gnu/bin/../lib/gcc/nios2-elf/4.1.2/mno-hw-mul/libgcc.a(_si_to_df.o)
 .debug_aranges
                0x00000688       0x20 /opt/altera/nios2eds/bin/gnu/H-i686-pc-linux-gnu/bin/../lib/gcc/nios2-elf/4.1.2/mno-hw-mul/libgcc.a(_df_to_si.o)
 .debug_aranges
                0x000006a8       0x20 /opt/altera/nios2eds/bin/gnu/H-i686-pc-linux-gnu/bin/../lib/gcc/nios2-elf/4.1.2/mno-hw-mul/libgcc.a(_usi_to_df.o)
 .debug_aranges
                0x000006c8       0x20 /opt/altera/nios2eds/bin/gnu/H-i686-pc-linux-gnu/bin/../lib/gcc/nios2-elf/4.1.2/mno-hw-mul/libgcc.a(lib2-mul.o)
 .debug_aranges
                0x000006e8       0x20 /opt/altera/nios2eds/bin/gnu/H-i686-pc-linux-gnu/bin/../lib/gcc/nios2-elf/4.1.2/mno-hw-mul/libgcc.a(_muldi3.o)
 .debug_aranges
                0x00000708       0x20 /opt/altera/nios2eds/bin/gnu/H-i686-pc-linux-gnu/bin/../lib/gcc/nios2-elf/4.1.2/mno-hw-mul/libgcc.a(_clzsi2.o)
 .debug_aranges
                0x00000728       0x20 /opt/altera/nios2eds/bin/gnu/H-i686-pc-linux-gnu/bin/../lib/gcc/nios2-elf/4.1.2/mno-hw-mul/libgcc.a(_pack_df.o)
 .debug_aranges
                0x00000748       0x20 /opt/altera/nios2eds/bin/gnu/H-i686-pc-linux-gnu/bin/../lib/gcc/nios2-elf/4.1.2/mno-hw-mul/libgcc.a(_unpack_df.o)
 .debug_aranges
                0x00000768       0x20 /opt/altera/nios2eds/bin/gnu/H-i686-pc-linux-gnu/bin/../lib/gcc/nios2-elf/4.1.2/mno-hw-mul/libgcc.a(_fpcmp_parts_df.o)
 .debug_aranges
                0x00000788       0x20 ../de1_ucosii_tutorial_bsp//libucosii_bsp.a(alt_close.o)
 .debug_aranges
                0x000007a8       0x20 ../de1_ucosii_tutorial_bsp//libucosii_bsp.a(alt_dev.o)
 .debug_aranges
                0x000007c8       0x20 ../de1_ucosii_tutorial_bsp//libucosii_bsp.a(alt_exit.o)
 .debug_aranges
                0x000007e8       0x20 ../de1_ucosii_tutorial_bsp//libucosii_bsp.a(alt_fstat.o)
 .debug_aranges
                0x00000808       0x20 ../de1_ucosii_tutorial_bsp//libucosii_bsp.a(alt_isatty.o)
 .debug_aranges
                0x00000828       0x20 ../de1_ucosii_tutorial_bsp//libucosii_bsp.a(alt_load.o)
 .debug_aranges
                0x00000848       0x20 ../de1_ucosii_tutorial_bsp//libucosii_bsp.a(alt_lseek.o)
 .debug_aranges
                0x00000868       0x20 ../de1_ucosii_tutorial_bsp//libucosii_bsp.a(alt_main.o)
 .debug_aranges
                0x00000888       0x20 ../de1_ucosii_tutorial_bsp//libucosii_bsp.a(alt_read.o)
 .debug_aranges
                0x000008a8       0x20 ../de1_ucosii_tutorial_bsp//libucosii_bsp.a(alt_release_fd.o)
 .debug_aranges
                0x000008c8       0x20 ../de1_ucosii_tutorial_bsp//libucosii_bsp.a(alt_sbrk.o)
 .debug_aranges
                0x000008e8       0x20 ../de1_ucosii_tutorial_bsp//libucosii_bsp.a(alt_write.o)
 .debug_aranges
                0x00000908       0x20 ../de1_ucosii_tutorial_bsp//libucosii_bsp.a(alt_env_lock.o)
 .debug_aranges
                0x00000928       0x20 ../de1_ucosii_tutorial_bsp//libucosii_bsp.a(alt_malloc_lock.o)
 .debug_aranges
                0x00000948       0x20 ../de1_ucosii_tutorial_bsp//libucosii_bsp.a(os_core.o)
 .debug_aranges
                0x00000968       0x20 ../de1_ucosii_tutorial_bsp//libucosii_bsp.a(os_dbg.o)
 .debug_aranges
                0x00000988       0x20 ../de1_ucosii_tutorial_bsp//libucosii_bsp.a(os_flag.o)
 .debug_aranges
                0x000009a8       0x20 ../de1_ucosii_tutorial_bsp//libucosii_bsp.a(os_mem.o)
 .debug_aranges
                0x000009c8       0x20 ../de1_ucosii_tutorial_bsp//libucosii_bsp.a(os_q.o)
 .debug_aranges
                0x000009e8       0x20 ../de1_ucosii_tutorial_bsp//libucosii_bsp.a(os_sem.o)
 .debug_aranges
                0x00000a08       0x20 ../de1_ucosii_tutorial_bsp//libucosii_bsp.a(os_task.o)
 .debug_aranges
                0x00000a28       0x20 ../de1_ucosii_tutorial_bsp//libucosii_bsp.a(os_time.o)
 .debug_aranges
                0x00000a48       0x20 ../de1_ucosii_tutorial_bsp//libucosii_bsp.a(alt_sys_init.o)
 .debug_aranges
                0x00000a68       0x20 ../de1_ucosii_tutorial_bsp//libucosii_bsp.a(altera_avalon_jtag_uart_fd.o)
 .debug_aranges
                0x00000a88       0x20 ../de1_ucosii_tutorial_bsp//libucosii_bsp.a(altera_avalon_jtag_uart_init.o)
 .debug_aranges
                0x00000aa8       0x20 ../de1_ucosii_tutorial_bsp//libucosii_bsp.a(altera_avalon_jtag_uart_ioctl.o)
 .debug_aranges
                0x00000ac8       0x20 ../de1_ucosii_tutorial_bsp//libucosii_bsp.a(altera_avalon_jtag_uart_read.o)
 .debug_aranges
                0x00000ae8       0x20 ../de1_ucosii_tutorial_bsp//libucosii_bsp.a(altera_avalon_jtag_uart_write.o)
 .debug_aranges
                0x00000b08       0x20 ../de1_ucosii_tutorial_bsp//libucosii_bsp.a(altera_avalon_timer_sc.o)
 .debug_aranges
                0x00000b28       0x20 ../de1_ucosii_tutorial_bsp//libucosii_bsp.a(alt_alarm_start.o)
 .debug_aranges
                0x00000b48       0x20 ../de1_ucosii_tutorial_bsp//libucosii_bsp.a(alt_dcache_flush_all.o)
 .debug_aranges
                0x00000b68       0x20 ../de1_ucosii_tutorial_bsp//libucosii_bsp.a(alt_dev_llist_insert.o)
 .debug_aranges
                0x00000b88       0x20 ../de1_ucosii_tutorial_bsp//libucosii_bsp.a(alt_do_ctors.o)
 .debug_aranges
                0x00000ba8       0x20 ../de1_ucosii_tutorial_bsp//libucosii_bsp.a(alt_do_dtors.o)
 .debug_aranges
                0x00000bc8       0x20 ../de1_ucosii_tutorial_bsp//libucosii_bsp.a(alt_icache_flush_all.o)
 .debug_aranges
                0x00000be8       0x20 ../de1_ucosii_tutorial_bsp//libucosii_bsp.a(alt_iic.o)
 .debug_aranges
                0x00000c08       0x20 ../de1_ucosii_tutorial_bsp//libucosii_bsp.a(alt_iic_isr_register.o)
 .debug_aranges
                0x00000c28       0x20 ../de1_ucosii_tutorial_bsp//libucosii_bsp.a(alt_io_redirect.o)
 .debug_aranges
                0x00000c48       0x30 ../de1_ucosii_tutorial_bsp//libucosii_bsp.a(alt_irq_entry.o)
 .debug_aranges
                0x00000c78       0x28 ../de1_ucosii_tutorial_bsp//libucosii_bsp.a(alt_irq_handler.o)
 .debug_aranges
                0x00000ca0       0x20 ../de1_ucosii_tutorial_bsp//libucosii_bsp.a(alt_open.o)
 .debug_aranges
                0x00000cc0       0x20 ../de1_ucosii_tutorial_bsp//libucosii_bsp.a(alt_tick.o)
 .debug_aranges
                0x00000ce0       0x20 ../de1_ucosii_tutorial_bsp//libucosii_bsp.a(altera_nios2_qsys_irq.o)
 .debug_aranges
                0x00000d00       0x20 ../de1_ucosii_tutorial_bsp//libucosii_bsp.a(os_cpu_a.o)
 .debug_aranges
                0x00000d20       0x20 ../de1_ucosii_tutorial_bsp//libucosii_bsp.a(os_cpu_c.o)
 .debug_aranges
                0x00000d40       0x38 ../de1_ucosii_tutorial_bsp//libucosii_bsp.a(alt_exception_entry.o)
 .debug_aranges
                0x00000d78       0x20 ../de1_ucosii_tutorial_bsp//libucosii_bsp.a(alt_find_dev.o)
 .debug_aranges
                0x00000d98       0x20 ../de1_ucosii_tutorial_bsp//libucosii_bsp.a(alt_find_file.o)
 .debug_aranges
                0x00000db8       0x20 ../de1_ucosii_tutorial_bsp//libucosii_bsp.a(alt_get_fd.o)
 .debug_aranges
                0x00000dd8       0x20 /opt/altera/nios2eds/bin/gnu/H-i686-pc-linux-gnu/bin/../lib/gcc/nios2-elf/4.1.2/../../../../nios2-elf/lib/mno-hw-mul/libc.a(lib_a-atexit.o)
 .debug_aranges
                0x00000df8       0x20 /opt/altera/nios2eds/bin/gnu/H-i686-pc-linux-gnu/bin/../lib/gcc/nios2-elf/4.1.2/../../../../nios2-elf/lib/mno-hw-mul/libc.a(lib_a-memcmp.o)
 .debug_aranges
                0x00000e18       0x20 /opt/altera/nios2eds/bin/gnu/H-i686-pc-linux-gnu/bin/../lib/gcc/nios2-elf/4.1.2/../../../../nios2-elf/lib/mno-hw-mul/libc.a(lib_a-__atexit.o)

.debug_pubnames
                0x00000000     0x2127
 *(.debug_pubnames)
 .debug_pubnames
                0x00000000       0x57 obj/default/alt_ucosii_simple_error_check.o
 .debug_pubnames
                0x00000057       0xba obj/default/producer_consumer.o
 .debug_pubnames
                0x00000111       0x48 /opt/altera/nios2eds/bin/gnu/H-i686-pc-linux-gnu/bin/../lib/gcc/nios2-elf/4.1.2/mno-hw-mul/libgcc.a(lib2-divmod.o)
 .debug_pubnames
                0x00000159       0x1b /opt/altera/nios2eds/bin/gnu/H-i686-pc-linux-gnu/bin/../lib/gcc/nios2-elf/4.1.2/../../../../nios2-elf/lib/mno-hw-mul/libc.a(lib_a-exit.o)
 .debug_pubnames
                0x00000174       0x2d /opt/altera/nios2eds/bin/gnu/H-i686-pc-linux-gnu/bin/../lib/gcc/nios2-elf/4.1.2/../../../../nios2-elf/lib/mno-hw-mul/libc.a(lib_a-fprintf.o)
 .debug_pubnames
                0x000001a1       0x2b /opt/altera/nios2eds/bin/gnu/H-i686-pc-linux-gnu/bin/../lib/gcc/nios2-elf/4.1.2/../../../../nios2-elf/lib/mno-hw-mul/libc.a(lib_a-fwrite.o)
 .debug_pubnames
                0x000001cc       0x39 /opt/altera/nios2eds/bin/gnu/H-i686-pc-linux-gnu/bin/../lib/gcc/nios2-elf/4.1.2/../../../../nios2-elf/lib/mno-hw-mul/libc.a(lib_a-impure.o)
 .debug_pubnames
                0x00000205       0x2b /opt/altera/nios2eds/bin/gnu/H-i686-pc-linux-gnu/bin/../lib/gcc/nios2-elf/4.1.2/../../../../nios2-elf/lib/mno-hw-mul/libc.a(lib_a-printf.o)
 .debug_pubnames
                0x00000230       0x27 /opt/altera/nios2eds/bin/gnu/H-i686-pc-linux-gnu/bin/../lib/gcc/nios2-elf/4.1.2/../../../../nios2-elf/lib/mno-hw-mul/libc.a(lib_a-puts.o)
 .debug_pubnames
                0x00000257       0x1d /opt/altera/nios2eds/bin/gnu/H-i686-pc-linux-gnu/bin/../lib/gcc/nios2-elf/4.1.2/../../../../nios2-elf/lib/mno-hw-mul/libc.a(lib_a-strlen.o)
 .debug_pubnames
                0x00000274       0x45 /opt/altera/nios2eds/bin/gnu/H-i686-pc-linux-gnu/bin/../lib/gcc/nios2-elf/4.1.2/../../../../nios2-elf/lib/mno-hw-mul/libc.a(lib_a-vfprintf.o)
 .debug_pubnames
                0x000002b9       0x22 /opt/altera/nios2eds/bin/gnu/H-i686-pc-linux-gnu/bin/../lib/gcc/nios2-elf/4.1.2/../../../../nios2-elf/lib/mno-hw-mul/libc.a(lib_a-wsetup.o)
 .debug_pubnames
                0x000002db       0x27 /opt/altera/nios2eds/bin/gnu/H-i686-pc-linux-gnu/bin/../lib/gcc/nios2-elf/4.1.2/../../../../nios2-elf/lib/mno-hw-mul/libc.a(lib_a-__call_atexit.o)
 .debug_pubnames
                0x00000302       0x1e /opt/altera/nios2eds/bin/gnu/H-i686-pc-linux-gnu/bin/../lib/gcc/nios2-elf/4.1.2/../../../../nios2-elf/lib/mno-hw-mul/libc.a(lib_a-dtoa.o)
 .debug_pubnames
                0x00000320       0x2b /opt/altera/nios2eds/bin/gnu/H-i686-pc-linux-gnu/bin/../lib/gcc/nios2-elf/4.1.2/../../../../nios2-elf/lib/mno-hw-mul/libc.a(lib_a-fflush.o)
 .debug_pubnames
                0x0000034b       0xdb /opt/altera/nios2eds/bin/gnu/H-i686-pc-linux-gnu/bin/../lib/gcc/nios2-elf/4.1.2/../../../../nios2-elf/lib/mno-hw-mul/libc.a(lib_a-findfp.o)
 .debug_pubnames
                0x00000426       0x31 /opt/altera/nios2eds/bin/gnu/H-i686-pc-linux-gnu/bin/../lib/gcc/nios2-elf/4.1.2/../../../../nios2-elf/lib/mno-hw-mul/libc.a(lib_a-freer.o)
 .debug_pubnames
                0x00000457       0x23 /opt/altera/nios2eds/bin/gnu/H-i686-pc-linux-gnu/bin/../lib/gcc/nios2-elf/4.1.2/../../../../nios2-elf/lib/mno-hw-mul/libc.a(lib_a-fvwrite.o)
 .debug_pubnames
                0x0000047a       0x2e /opt/altera/nios2eds/bin/gnu/H-i686-pc-linux-gnu/bin/../lib/gcc/nios2-elf/4.1.2/../../../../nios2-elf/lib/mno-hw-mul/libc.a(lib_a-fwalk.o)
 .debug_pubnames
                0x000004a8       0xc3 /opt/altera/nios2eds/bin/gnu/H-i686-pc-linux-gnu/bin/../lib/gcc/nios2-elf/4.1.2/../../../../nios2-elf/lib/mno-hw-mul/libc.a(lib_a-locale.o)
 .debug_pubnames
                0x0000056b       0x23 /opt/altera/nios2eds/bin/gnu/H-i686-pc-linux-gnu/bin/../lib/gcc/nios2-elf/4.1.2/../../../../nios2-elf/lib/mno-hw-mul/libc.a(lib_a-makebuf.o)
 .debug_pubnames
                0x0000058e       0xce /opt/altera/nios2eds/bin/gnu/H-i686-pc-linux-gnu/bin/../lib/gcc/nios2-elf/4.1.2/../../../../nios2-elf/lib/mno-hw-mul/libc.a(lib_a-mallocr.o)
 .debug_pubnames
                0x0000065c       0x1d /opt/altera/nios2eds/bin/gnu/H-i686-pc-linux-gnu/bin/../lib/gcc/nios2-elf/4.1.2/../../../../nios2-elf/lib/mno-hw-mul/libc.a(lib_a-memchr.o)
 .debug_pubnames
                0x00000679       0x1d /opt/altera/nios2eds/bin/gnu/H-i686-pc-linux-gnu/bin/../lib/gcc/nios2-elf/4.1.2/../../../../nios2-elf/lib/mno-hw-mul/libc.a(lib_a-memcpy.o)
 .debug_pubnames
                0x00000696       0x1e /opt/altera/nios2eds/bin/gnu/H-i686-pc-linux-gnu/bin/../lib/gcc/nios2-elf/4.1.2/../../../../nios2-elf/lib/mno-hw-mul/libc.a(lib_a-memmove.o)
 .debug_pubnames
                0x000006b4       0x1d /opt/altera/nios2eds/bin/gnu/H-i686-pc-linux-gnu/bin/../lib/gcc/nios2-elf/4.1.2/../../../../nios2-elf/lib/mno-hw-mul/libc.a(lib_a-memset.o)
 .debug_pubnames
                0x000006d1      0x13a /opt/altera/nios2eds/bin/gnu/H-i686-pc-linux-gnu/bin/../lib/gcc/nios2-elf/4.1.2/../../../../nios2-elf/lib/mno-hw-mul/libc.a(lib_a-mprec.o)
 .debug_pubnames
                0x0000080b       0x21 /opt/altera/nios2eds/bin/gnu/H-i686-pc-linux-gnu/bin/../lib/gcc/nios2-elf/4.1.2/../../../../nios2-elf/lib/mno-hw-mul/libc.a(lib_a-reallocr.o)
 .debug_pubnames
                0x0000082c       0x1f /opt/altera/nios2eds/bin/gnu/H-i686-pc-linux-gnu/bin/../lib/gcc/nios2-elf/4.1.2/../../../../nios2-elf/lib/mno-hw-mul/libc.a(lib_a-s_isinfd.o)
 .debug_pubnames
                0x0000084b       0x1f /opt/altera/nios2eds/bin/gnu/H-i686-pc-linux-gnu/bin/../lib/gcc/nios2-elf/4.1.2/../../../../nios2-elf/lib/mno-hw-mul/libc.a(lib_a-s_isnand.o)
 .debug_pubnames
                0x0000086a       0x1e /opt/altera/nios2eds/bin/gnu/H-i686-pc-linux-gnu/bin/../lib/gcc/nios2-elf/4.1.2/../../../../nios2-elf/lib/mno-hw-mul/libc.a(lib_a-sbrkr.o)
 .debug_pubnames
                0x00000888       0x44 /opt/altera/nios2eds/bin/gnu/H-i686-pc-linux-gnu/bin/../lib/gcc/nios2-elf/4.1.2/../../../../nios2-elf/lib/mno-hw-mul/libc.a(lib_a-stdio.o)
 .debug_pubnames
                0x000008cc       0x1d /opt/altera/nios2eds/bin/gnu/H-i686-pc-linux-gnu/bin/../lib/gcc/nios2-elf/4.1.2/../../../../nios2-elf/lib/mno-hw-mul/libc.a(lib_a-strcmp.o)
 .debug_pubnames
                0x000008e9       0x1f /opt/altera/nios2eds/bin/gnu/H-i686-pc-linux-gnu/bin/../lib/gcc/nios2-elf/4.1.2/../../../../nios2-elf/lib/mno-hw-mul/libc.a(lib_a-writer.o)
 .debug_pubnames
                0x00000908       0x20 /opt/altera/nios2eds/bin/gnu/H-i686-pc-linux-gnu/bin/../lib/gcc/nios2-elf/4.1.2/../../../../nios2-elf/lib/mno-hw-mul/libc.a(lib_a-callocr.o)
 .debug_pubnames
                0x00000928       0x1f /opt/altera/nios2eds/bin/gnu/H-i686-pc-linux-gnu/bin/../lib/gcc/nios2-elf/4.1.2/../../../../nios2-elf/lib/mno-hw-mul/libc.a(lib_a-closer.o)
 .debug_pubnames
                0x00000947       0x2b /opt/altera/nios2eds/bin/gnu/H-i686-pc-linux-gnu/bin/../lib/gcc/nios2-elf/4.1.2/../../../../nios2-elf/lib/mno-hw-mul/libc.a(lib_a-fclose.o)
 .debug_pubnames
                0x00000972       0x1f /opt/altera/nios2eds/bin/gnu/H-i686-pc-linux-gnu/bin/../lib/gcc/nios2-elf/4.1.2/../../../../nios2-elf/lib/mno-hw-mul/libc.a(lib_a-fstatr.o)
 .debug_pubnames
                0x00000991       0x1c /opt/altera/nios2eds/bin/gnu/H-i686-pc-linux-gnu/bin/../lib/gcc/nios2-elf/4.1.2/../../../../nios2-elf/lib/mno-hw-mul/libc.a(lib_a-int_errno.o)
 .debug_pubnames
                0x000009ad       0x20 /opt/altera/nios2eds/bin/gnu/H-i686-pc-linux-gnu/bin/../lib/gcc/nios2-elf/4.1.2/../../../../nios2-elf/lib/mno-hw-mul/libc.a(lib_a-isattyr.o)
 .debug_pubnames
                0x000009cd       0x1f /opt/altera/nios2eds/bin/gnu/H-i686-pc-linux-gnu/bin/../lib/gcc/nios2-elf/4.1.2/../../../../nios2-elf/lib/mno-hw-mul/libc.a(lib_a-lseekr.o)
 .debug_pubnames
                0x000009ec       0x1e /opt/altera/nios2eds/bin/gnu/H-i686-pc-linux-gnu/bin/../lib/gcc/nios2-elf/4.1.2/../../../../nios2-elf/lib/mno-hw-mul/libc.a(lib_a-readr.o)
 .debug_pubnames
                0x00000a0a       0x20 /opt/altera/nios2eds/bin/gnu/H-i686-pc-linux-gnu/bin/../lib/gcc/nios2-elf/4.1.2/mno-hw-mul/libgcc.a(_udivdi3.o)
 .debug_pubnames
                0x00000a2a       0x20 /opt/altera/nios2eds/bin/gnu/H-i686-pc-linux-gnu/bin/../lib/gcc/nios2-elf/4.1.2/mno-hw-mul/libgcc.a(_umoddi3.o)
 .debug_pubnames
                0x00000a4a       0x2c /opt/altera/nios2eds/bin/gnu/H-i686-pc-linux-gnu/bin/../lib/gcc/nios2-elf/4.1.2/mno-hw-mul/libgcc.a(_addsub_df.o)
 .debug_pubnames
                0x00000a76       0x1f /opt/altera/nios2eds/bin/gnu/H-i686-pc-linux-gnu/bin/../lib/gcc/nios2-elf/4.1.2/mno-hw-mul/libgcc.a(_mul_df.o)
 .debug_pubnames
                0x00000a95       0x1f /opt/altera/nios2eds/bin/gnu/H-i686-pc-linux-gnu/bin/../lib/gcc/nios2-elf/4.1.2/mno-hw-mul/libgcc.a(_div_df.o)
 .debug_pubnames
                0x00000ab4       0x1e /opt/altera/nios2eds/bin/gnu/H-i686-pc-linux-gnu/bin/../lib/gcc/nios2-elf/4.1.2/mno-hw-mul/libgcc.a(_eq_df.o)
 .debug_pubnames
                0x00000ad2       0x1e /opt/altera/nios2eds/bin/gnu/H-i686-pc-linux-gnu/bin/../lib/gcc/nios2-elf/4.1.2/mno-hw-mul/libgcc.a(_ne_df.o)
 .debug_pubnames
                0x00000af0       0x1e /opt/altera/nios2eds/bin/gnu/H-i686-pc-linux-gnu/bin/../lib/gcc/nios2-elf/4.1.2/mno-hw-mul/libgcc.a(_gt_df.o)
 .debug_pubnames
                0x00000b0e       0x1e /opt/altera/nios2eds/bin/gnu/H-i686-pc-linux-gnu/bin/../lib/gcc/nios2-elf/4.1.2/mno-hw-mul/libgcc.a(_ge_df.o)
 .debug_pubnames
                0x00000b2c       0x1e /opt/altera/nios2eds/bin/gnu/H-i686-pc-linux-gnu/bin/../lib/gcc/nios2-elf/4.1.2/mno-hw-mul/libgcc.a(_lt_df.o)
 .debug_pubnames
                0x00000b4a       0x22 /opt/altera/nios2eds/bin/gnu/H-i686-pc-linux-gnu/bin/../lib/gcc/nios2-elf/4.1.2/mno-hw-mul/libgcc.a(_si_to_df.o)
 .debug_pubnames
                0x00000b6c       0x20 /opt/altera/nios2eds/bin/gnu/H-i686-pc-linux-gnu/bin/../lib/gcc/nios2-elf/4.1.2/mno-hw-mul/libgcc.a(_df_to_si.o)
 .debug_pubnames
                0x00000b8c       0x22 /opt/altera/nios2eds/bin/gnu/H-i686-pc-linux-gnu/bin/../lib/gcc/nios2-elf/4.1.2/mno-hw-mul/libgcc.a(_thenan_df.o)
 .debug_pubnames
                0x00000bae       0x24 /opt/altera/nios2eds/bin/gnu/H-i686-pc-linux-gnu/bin/../lib/gcc/nios2-elf/4.1.2/mno-hw-mul/libgcc.a(_usi_to_df.o)
 .debug_pubnames
                0x00000bd2       0x1f /opt/altera/nios2eds/bin/gnu/H-i686-pc-linux-gnu/bin/../lib/gcc/nios2-elf/4.1.2/mno-hw-mul/libgcc.a(lib2-mul.o)
 .debug_pubnames
                0x00000bf1       0x1f /opt/altera/nios2eds/bin/gnu/H-i686-pc-linux-gnu/bin/../lib/gcc/nios2-elf/4.1.2/mno-hw-mul/libgcc.a(_muldi3.o)
 .debug_pubnames
                0x00000c10       0x20 /opt/altera/nios2eds/bin/gnu/H-i686-pc-linux-gnu/bin/../lib/gcc/nios2-elf/4.1.2/mno-hw-mul/libgcc.a(_clz.o)
 .debug_pubnames
                0x00000c30       0x1f /opt/altera/nios2eds/bin/gnu/H-i686-pc-linux-gnu/bin/../lib/gcc/nios2-elf/4.1.2/mno-hw-mul/libgcc.a(_clzsi2.o)
 .debug_pubnames
                0x00000c4f       0x1f /opt/altera/nios2eds/bin/gnu/H-i686-pc-linux-gnu/bin/../lib/gcc/nios2-elf/4.1.2/mno-hw-mul/libgcc.a(_pack_df.o)
 .debug_pubnames
                0x00000c6e       0x21 /opt/altera/nios2eds/bin/gnu/H-i686-pc-linux-gnu/bin/../lib/gcc/nios2-elf/4.1.2/mno-hw-mul/libgcc.a(_unpack_df.o)
 .debug_pubnames
                0x00000c8f       0x26 /opt/altera/nios2eds/bin/gnu/H-i686-pc-linux-gnu/bin/../lib/gcc/nios2-elf/4.1.2/mno-hw-mul/libgcc.a(_fpcmp_parts_df.o)
 .debug_pubnames
                0x00000cb5       0x1c ../de1_ucosii_tutorial_bsp//libucosii_bsp.a(alt_close.o)
 .debug_pubnames
                0x00000cd1       0x78 ../de1_ucosii_tutorial_bsp//libucosii_bsp.a(alt_dev.o)
 .debug_pubnames
                0x00000d49       0x20 ../de1_ucosii_tutorial_bsp//libucosii_bsp.a(alt_errno.o)
 .debug_pubnames
                0x00000d69       0x1c ../de1_ucosii_tutorial_bsp//libucosii_bsp.a(alt_exit.o)
 .debug_pubnames
                0x00000d85       0x1c ../de1_ucosii_tutorial_bsp//libucosii_bsp.a(alt_fstat.o)
 .debug_pubnames
                0x00000da1       0x1d ../de1_ucosii_tutorial_bsp//libucosii_bsp.a(alt_isatty.o)
 .debug_pubnames
                0x00000dbe       0x1f ../de1_ucosii_tutorial_bsp//libucosii_bsp.a(alt_load.o)
 .debug_pubnames
                0x00000ddd       0x1c ../de1_ucosii_tutorial_bsp//libucosii_bsp.a(alt_lseek.o)
 .debug_pubnames
                0x00000df9       0x46 ../de1_ucosii_tutorial_bsp//libucosii_bsp.a(alt_main.o)
 .debug_pubnames
                0x00000e3f       0x1b ../de1_ucosii_tutorial_bsp//libucosii_bsp.a(alt_read.o)
 .debug_pubnames
                0x00000e5a       0x25 ../de1_ucosii_tutorial_bsp//libucosii_bsp.a(alt_release_fd.o)
 .debug_pubnames
                0x00000e7f       0x1b ../de1_ucosii_tutorial_bsp//libucosii_bsp.a(alt_sbrk.o)
 .debug_pubnames
                0x00000e9a       0x1c ../de1_ucosii_tutorial_bsp//libucosii_bsp.a(alt_write.o)
 .debug_pubnames
                0x00000eb6       0x41 ../de1_ucosii_tutorial_bsp//libucosii_bsp.a(alt_env_lock.o)
 .debug_pubnames
                0x00000ef7       0x48 ../de1_ucosii_tutorial_bsp//libucosii_bsp.a(alt_malloc_lock.o)
 .debug_pubnames
                0x00000f3f      0x3f8 ../de1_ucosii_tutorial_bsp//libucosii_bsp.a(os_core.o)
 .debug_pubnames
                0x00001337      0x3c5 ../de1_ucosii_tutorial_bsp//libucosii_bsp.a(os_dbg.o)
 .debug_pubnames
                0x000016fc       0xd0 ../de1_ucosii_tutorial_bsp//libucosii_bsp.a(os_flag.o)
 .debug_pubnames
                0x000017cc       0x7c ../de1_ucosii_tutorial_bsp//libucosii_bsp.a(os_mem.o)
 .debug_pubnames
                0x00001848       0xa9 ../de1_ucosii_tutorial_bsp//libucosii_bsp.a(os_q.o)
 .debug_pubnames
                0x000018f1       0x8a ../de1_ucosii_tutorial_bsp//libucosii_bsp.a(os_sem.o)
 .debug_pubnames
                0x0000197b       0xe5 ../de1_ucosii_tutorial_bsp//libucosii_bsp.a(os_task.o)
 .debug_pubnames
                0x00001a60       0x62 ../de1_ucosii_tutorial_bsp//libucosii_bsp.a(os_time.o)
 .debug_pubnames
                0x00001ac2       0x34 ../de1_ucosii_tutorial_bsp//libucosii_bsp.a(alt_sys_init.o)
 .debug_pubnames
                0x00001af6       0xa5 ../de1_ucosii_tutorial_bsp//libucosii_bsp.a(altera_avalon_jtag_uart_fd.o)
 .debug_pubnames
                0x00001b9b       0x55 ../de1_ucosii_tutorial_bsp//libucosii_bsp.a(altera_avalon_jtag_uart_init.o)
 .debug_pubnames
                0x00001bf0       0x34 ../de1_ucosii_tutorial_bsp//libucosii_bsp.a(altera_avalon_jtag_uart_ioctl.o)
 .debug_pubnames
                0x00001c24       0x33 ../de1_ucosii_tutorial_bsp//libucosii_bsp.a(altera_avalon_jtag_uart_read.o)
 .debug_pubnames
                0x00001c57       0x34 ../de1_ucosii_tutorial_bsp//libucosii_bsp.a(altera_avalon_jtag_uart_write.o)
 .debug_pubnames
                0x00001c8b       0x2f ../de1_ucosii_tutorial_bsp//libucosii_bsp.a(altera_avalon_timer_sc.o)
 .debug_pubnames
                0x00001cba       0x26 ../de1_ucosii_tutorial_bsp//libucosii_bsp.a(alt_alarm_start.o)
 .debug_pubnames
                0x00001ce0       0x2b ../de1_ucosii_tutorial_bsp//libucosii_bsp.a(alt_dcache_flush_all.o)
 .debug_pubnames
                0x00001d0b       0x2b ../de1_ucosii_tutorial_bsp//libucosii_bsp.a(alt_dev_llist_insert.o)
 .debug_pubnames
                0x00001d36       0x20 ../de1_ucosii_tutorial_bsp//libucosii_bsp.a(alt_do_ctors.o)
 .debug_pubnames
                0x00001d56       0x20 ../de1_ucosii_tutorial_bsp//libucosii_bsp.a(alt_do_dtors.o)
 .debug_pubnames
                0x00001d76       0x2b ../de1_ucosii_tutorial_bsp//libucosii_bsp.a(alt_icache_flush_all.o)
 .debug_pubnames
                0x00001da1       0x6e ../de1_ucosii_tutorial_bsp//libucosii_bsp.a(alt_iic.o)
 .debug_pubnames
                0x00001e0f       0x2b ../de1_ucosii_tutorial_bsp//libucosii_bsp.a(alt_iic_isr_register.o)
 .debug_pubnames
                0x00001e3a       0x26 ../de1_ucosii_tutorial_bsp//libucosii_bsp.a(alt_io_redirect.o)
 .debug_pubnames
                0x00001e60       0x32 ../de1_ucosii_tutorial_bsp//libucosii_bsp.a(alt_irq_handler.o)
 .debug_pubnames
                0x00001e92       0x3b ../de1_ucosii_tutorial_bsp//libucosii_bsp.a(alt_irq_vars.o)
 .debug_pubnames
                0x00001ecd       0x1b ../de1_ucosii_tutorial_bsp//libucosii_bsp.a(alt_open.o)
 .debug_pubnames
                0x00001ee8       0x68 ../de1_ucosii_tutorial_bsp//libucosii_bsp.a(alt_tick.o)
 .debug_pubnames
                0x00001f50       0x31 ../de1_ucosii_tutorial_bsp//libucosii_bsp.a(altera_nios2_qsys_irq.o)
 .debug_pubnames
                0x00001f81       0xcd ../de1_ucosii_tutorial_bsp//libucosii_bsp.a(os_cpu_c.o)
 .debug_pubnames
                0x0000204e       0x23 ../de1_ucosii_tutorial_bsp//libucosii_bsp.a(alt_find_dev.o)
 .debug_pubnames
                0x00002071       0x24 ../de1_ucosii_tutorial_bsp//libucosii_bsp.a(alt_find_file.o)
 .debug_pubnames
                0x00002095       0x21 ../de1_ucosii_tutorial_bsp//libucosii_bsp.a(alt_get_fd.o)
 .debug_pubnames
                0x000020b6       0x2a /opt/altera/nios2eds/bin/gnu/H-i686-pc-linux-gnu/bin/../lib/gcc/nios2-elf/4.1.2/../../../../nios2-elf/lib/mno-hw-mul/libc.a(lib_a-atexit.o)
 .debug_pubnames
                0x000020e0       0x1d /opt/altera/nios2eds/bin/gnu/H-i686-pc-linux-gnu/bin/../lib/gcc/nios2-elf/4.1.2/../../../../nios2-elf/lib/mno-hw-mul/libc.a(lib_a-memcmp.o)
 .debug_pubnames
                0x000020fd       0x2a /opt/altera/nios2eds/bin/gnu/H-i686-pc-linux-gnu/bin/../lib/gcc/nios2-elf/4.1.2/../../../../nios2-elf/lib/mno-hw-mul/libc.a(lib_a-__atexit.o)

.debug_info     0x00000000    0x31683
 *(.debug_info .gnu.linkonce.wi.*)
 .debug_info    0x00000000       0x79 ../de1_ucosii_tutorial_bsp//obj/HAL/src/crt0.o
 .debug_info    0x00000079      0xcb4 obj/default/alt_ucosii_simple_error_check.o
 .debug_info    0x00000d2d      0x619 obj/default/producer_consumer.o
 .debug_info    0x00001346      0x21c /opt/altera/nios2eds/bin/gnu/H-i686-pc-linux-gnu/bin/../lib/gcc/nios2-elf/4.1.2/mno-hw-mul/libgcc.a(lib2-divmod.o)
 .debug_info    0x00001562      0x93f /opt/altera/nios2eds/bin/gnu/H-i686-pc-linux-gnu/bin/../lib/gcc/nios2-elf/4.1.2/../../../../nios2-elf/lib/mno-hw-mul/libc.a(lib_a-exit.o)
 .debug_info    0x00001ea1      0x9e1 /opt/altera/nios2eds/bin/gnu/H-i686-pc-linux-gnu/bin/../lib/gcc/nios2-elf/4.1.2/../../../../nios2-elf/lib/mno-hw-mul/libc.a(lib_a-fprintf.o)
 .debug_info    0x00002882      0xa83 /opt/altera/nios2eds/bin/gnu/H-i686-pc-linux-gnu/bin/../lib/gcc/nios2-elf/4.1.2/../../../../nios2-elf/lib/mno-hw-mul/libc.a(lib_a-fwrite.o)
 .debug_info    0x00003305      0x93d /opt/altera/nios2eds/bin/gnu/H-i686-pc-linux-gnu/bin/../lib/gcc/nios2-elf/4.1.2/../../../../nios2-elf/lib/mno-hw-mul/libc.a(lib_a-impure.o)
 .debug_info    0x00003c42      0x9d1 /opt/altera/nios2eds/bin/gnu/H-i686-pc-linux-gnu/bin/../lib/gcc/nios2-elf/4.1.2/../../../../nios2-elf/lib/mno-hw-mul/libc.a(lib_a-printf.o)
 .debug_info    0x00004613      0xa25 /opt/altera/nios2eds/bin/gnu/H-i686-pc-linux-gnu/bin/../lib/gcc/nios2-elf/4.1.2/../../../../nios2-elf/lib/mno-hw-mul/libc.a(lib_a-puts.o)
 .debug_info    0x00005038       0xdb /opt/altera/nios2eds/bin/gnu/H-i686-pc-linux-gnu/bin/../lib/gcc/nios2-elf/4.1.2/../../../../nios2-elf/lib/mno-hw-mul/libc.a(lib_a-strlen.o)
 .debug_info    0x00005113     0x10d5 /opt/altera/nios2eds/bin/gnu/H-i686-pc-linux-gnu/bin/../lib/gcc/nios2-elf/4.1.2/../../../../nios2-elf/lib/mno-hw-mul/libc.a(lib_a-vfprintf.o)
 .debug_info    0x000061e8      0x95d /opt/altera/nios2eds/bin/gnu/H-i686-pc-linux-gnu/bin/../lib/gcc/nios2-elf/4.1.2/../../../../nios2-elf/lib/mno-hw-mul/libc.a(lib_a-wsetup.o)
 .debug_info    0x00006b45      0x9e2 /opt/altera/nios2eds/bin/gnu/H-i686-pc-linux-gnu/bin/../lib/gcc/nios2-elf/4.1.2/../../../../nios2-elf/lib/mno-hw-mul/libc.a(lib_a-__call_atexit.o)
 .debug_info    0x00007527      0xd6f /opt/altera/nios2eds/bin/gnu/H-i686-pc-linux-gnu/bin/../lib/gcc/nios2-elf/4.1.2/../../../../nios2-elf/lib/mno-hw-mul/libc.a(lib_a-dtoa.o)
 .debug_info    0x00008296      0x9fe /opt/altera/nios2eds/bin/gnu/H-i686-pc-linux-gnu/bin/../lib/gcc/nios2-elf/4.1.2/../../../../nios2-elf/lib/mno-hw-mul/libc.a(lib_a-fflush.o)
 .debug_info    0x00008c94      0xb72 /opt/altera/nios2eds/bin/gnu/H-i686-pc-linux-gnu/bin/../lib/gcc/nios2-elf/4.1.2/../../../../nios2-elf/lib/mno-hw-mul/libc.a(lib_a-findfp.o)
 .debug_info    0x00009806      0xbc9 /opt/altera/nios2eds/bin/gnu/H-i686-pc-linux-gnu/bin/../lib/gcc/nios2-elf/4.1.2/../../../../nios2-elf/lib/mno-hw-mul/libc.a(lib_a-freer.o)
 .debug_info    0x0000a3cf      0xa88 /opt/altera/nios2eds/bin/gnu/H-i686-pc-linux-gnu/bin/../lib/gcc/nios2-elf/4.1.2/../../../../nios2-elf/lib/mno-hw-mul/libc.a(lib_a-fvwrite.o)
 .debug_info    0x0000ae57      0xaed /opt/altera/nios2eds/bin/gnu/H-i686-pc-linux-gnu/bin/../lib/gcc/nios2-elf/4.1.2/../../../../nios2-elf/lib/mno-hw-mul/libc.a(lib_a-fwalk.o)
 .debug_info    0x0000b944      0xb97 /opt/altera/nios2eds/bin/gnu/H-i686-pc-linux-gnu/bin/../lib/gcc/nios2-elf/4.1.2/../../../../nios2-elf/lib/mno-hw-mul/libc.a(lib_a-locale.o)
 .debug_info    0x0000c4db      0xb1a /opt/altera/nios2eds/bin/gnu/H-i686-pc-linux-gnu/bin/../lib/gcc/nios2-elf/4.1.2/../../../../nios2-elf/lib/mno-hw-mul/libc.a(lib_a-makebuf.o)
 .debug_info    0x0000cff5      0xcd0 /opt/altera/nios2eds/bin/gnu/H-i686-pc-linux-gnu/bin/../lib/gcc/nios2-elf/4.1.2/../../../../nios2-elf/lib/mno-hw-mul/libc.a(lib_a-mallocr.o)
 .debug_info    0x0000dcc5      0x138 /opt/altera/nios2eds/bin/gnu/H-i686-pc-linux-gnu/bin/../lib/gcc/nios2-elf/4.1.2/../../../../nios2-elf/lib/mno-hw-mul/libc.a(lib_a-memchr.o)
 .debug_info    0x0000ddfd      0x106 /opt/altera/nios2eds/bin/gnu/H-i686-pc-linux-gnu/bin/../lib/gcc/nios2-elf/4.1.2/../../../../nios2-elf/lib/mno-hw-mul/libc.a(lib_a-memcpy.o)
 .debug_info    0x0000df03      0x13e /opt/altera/nios2eds/bin/gnu/H-i686-pc-linux-gnu/bin/../lib/gcc/nios2-elf/4.1.2/../../../../nios2-elf/lib/mno-hw-mul/libc.a(lib_a-memmove.o)
 .debug_info    0x0000e041      0x113 /opt/altera/nios2eds/bin/gnu/H-i686-pc-linux-gnu/bin/../lib/gcc/nios2-elf/4.1.2/../../../../nios2-elf/lib/mno-hw-mul/libc.a(lib_a-memset.o)
 .debug_info    0x0000e154     0x143b /opt/altera/nios2eds/bin/gnu/H-i686-pc-linux-gnu/bin/../lib/gcc/nios2-elf/4.1.2/../../../../nios2-elf/lib/mno-hw-mul/libc.a(lib_a-mprec.o)
 .debug_info    0x0000f58f      0xbd7 /opt/altera/nios2eds/bin/gnu/H-i686-pc-linux-gnu/bin/../lib/gcc/nios2-elf/4.1.2/../../../../nios2-elf/lib/mno-hw-mul/libc.a(lib_a-reallocr.o)
 .debug_info    0x00010166       0xd7 /opt/altera/nios2eds/bin/gnu/H-i686-pc-linux-gnu/bin/../lib/gcc/nios2-elf/4.1.2/../../../../nios2-elf/lib/mno-hw-mul/libc.a(lib_a-s_isinfd.o)
 .debug_info    0x0001023d       0xd5 /opt/altera/nios2eds/bin/gnu/H-i686-pc-linux-gnu/bin/../lib/gcc/nios2-elf/4.1.2/../../../../nios2-elf/lib/mno-hw-mul/libc.a(lib_a-s_isnand.o)
 .debug_info    0x00010312      0x962 /opt/altera/nios2eds/bin/gnu/H-i686-pc-linux-gnu/bin/../lib/gcc/nios2-elf/4.1.2/../../../../nios2-elf/lib/mno-hw-mul/libc.a(lib_a-sbrkr.o)
 .debug_info    0x00010c74      0xaac /opt/altera/nios2eds/bin/gnu/H-i686-pc-linux-gnu/bin/../lib/gcc/nios2-elf/4.1.2/../../../../nios2-elf/lib/mno-hw-mul/libc.a(lib_a-stdio.o)
 .debug_info    0x00011720       0xdd /opt/altera/nios2eds/bin/gnu/H-i686-pc-linux-gnu/bin/../lib/gcc/nios2-elf/4.1.2/../../../../nios2-elf/lib/mno-hw-mul/libc.a(lib_a-strcmp.o)
 .debug_info    0x000117fd      0x993 /opt/altera/nios2eds/bin/gnu/H-i686-pc-linux-gnu/bin/../lib/gcc/nios2-elf/4.1.2/../../../../nios2-elf/lib/mno-hw-mul/libc.a(lib_a-writer.o)
 .debug_info    0x00012190      0xa1b /opt/altera/nios2eds/bin/gnu/H-i686-pc-linux-gnu/bin/../lib/gcc/nios2-elf/4.1.2/../../../../nios2-elf/lib/mno-hw-mul/libc.a(lib_a-callocr.o)
 .debug_info    0x00012bab      0x958 /opt/altera/nios2eds/bin/gnu/H-i686-pc-linux-gnu/bin/../lib/gcc/nios2-elf/4.1.2/../../../../nios2-elf/lib/mno-hw-mul/libc.a(lib_a-closer.o)
 .debug_info    0x00013503      0x994 /opt/altera/nios2eds/bin/gnu/H-i686-pc-linux-gnu/bin/../lib/gcc/nios2-elf/4.1.2/../../../../nios2-elf/lib/mno-hw-mul/libc.a(lib_a-fclose.o)
 .debug_info    0x00013e97      0xafc /opt/altera/nios2eds/bin/gnu/H-i686-pc-linux-gnu/bin/../lib/gcc/nios2-elf/4.1.2/../../../../nios2-elf/lib/mno-hw-mul/libc.a(lib_a-fstatr.o)
 .debug_info    0x00014993       0x8c /opt/altera/nios2eds/bin/gnu/H-i686-pc-linux-gnu/bin/../lib/gcc/nios2-elf/4.1.2/../../../../nios2-elf/lib/mno-hw-mul/libc.a(lib_a-int_errno.o)
 .debug_info    0x00014a1f      0x958 /opt/altera/nios2eds/bin/gnu/H-i686-pc-linux-gnu/bin/../lib/gcc/nios2-elf/4.1.2/../../../../nios2-elf/lib/mno-hw-mul/libc.a(lib_a-isattyr.o)
 .debug_info    0x00015377      0x981 /opt/altera/nios2eds/bin/gnu/H-i686-pc-linux-gnu/bin/../lib/gcc/nios2-elf/4.1.2/../../../../nios2-elf/lib/mno-hw-mul/libc.a(lib_a-lseekr.o)
 .debug_info    0x00015cf8      0x98c /opt/altera/nios2eds/bin/gnu/H-i686-pc-linux-gnu/bin/../lib/gcc/nios2-elf/4.1.2/../../../../nios2-elf/lib/mno-hw-mul/libc.a(lib_a-readr.o)
 .debug_info    0x00016684      0x71c /opt/altera/nios2eds/bin/gnu/H-i686-pc-linux-gnu/bin/../lib/gcc/nios2-elf/4.1.2/mno-hw-mul/libgcc.a(_udivdi3.o)
 .debug_info    0x00016da0      0x749 /opt/altera/nios2eds/bin/gnu/H-i686-pc-linux-gnu/bin/../lib/gcc/nios2-elf/4.1.2/mno-hw-mul/libgcc.a(_umoddi3.o)
 .debug_info    0x000174e9      0x493 /opt/altera/nios2eds/bin/gnu/H-i686-pc-linux-gnu/bin/../lib/gcc/nios2-elf/4.1.2/mno-hw-mul/libgcc.a(_addsub_df.o)
 .debug_info    0x0001797c      0x488 /opt/altera/nios2eds/bin/gnu/H-i686-pc-linux-gnu/bin/../lib/gcc/nios2-elf/4.1.2/mno-hw-mul/libgcc.a(_mul_df.o)
 .debug_info    0x00017e04      0x39b /opt/altera/nios2eds/bin/gnu/H-i686-pc-linux-gnu/bin/../lib/gcc/nios2-elf/4.1.2/mno-hw-mul/libgcc.a(_div_df.o)
 .debug_info    0x0001819f      0x29d /opt/altera/nios2eds/bin/gnu/H-i686-pc-linux-gnu/bin/../lib/gcc/nios2-elf/4.1.2/mno-hw-mul/libgcc.a(_eq_df.o)
 .debug_info    0x0001843c      0x29d /opt/altera/nios2eds/bin/gnu/H-i686-pc-linux-gnu/bin/../lib/gcc/nios2-elf/4.1.2/mno-hw-mul/libgcc.a(_ne_df.o)
 .debug_info    0x000186d9      0x29d /opt/altera/nios2eds/bin/gnu/H-i686-pc-linux-gnu/bin/../lib/gcc/nios2-elf/4.1.2/mno-hw-mul/libgcc.a(_gt_df.o)
 .debug_info    0x00018976      0x29d /opt/altera/nios2eds/bin/gnu/H-i686-pc-linux-gnu/bin/../lib/gcc/nios2-elf/4.1.2/mno-hw-mul/libgcc.a(_ge_df.o)
 .debug_info    0x00018c13      0x29d /opt/altera/nios2eds/bin/gnu/H-i686-pc-linux-gnu/bin/../lib/gcc/nios2-elf/4.1.2/mno-hw-mul/libgcc.a(_lt_df.o)
 .debug_info    0x00018eb0      0x218 /opt/altera/nios2eds/bin/gnu/H-i686-pc-linux-gnu/bin/../lib/gcc/nios2-elf/4.1.2/mno-hw-mul/libgcc.a(_si_to_df.o)
 .debug_info    0x000190c8      0x2cd /opt/altera/nios2eds/bin/gnu/H-i686-pc-linux-gnu/bin/../lib/gcc/nios2-elf/4.1.2/mno-hw-mul/libgcc.a(_df_to_si.o)
 .debug_info    0x00019395      0x164 /opt/altera/nios2eds/bin/gnu/H-i686-pc-linux-gnu/bin/../lib/gcc/nios2-elf/4.1.2/mno-hw-mul/libgcc.a(_thenan_df.o)
 .debug_info    0x000194f9      0x213 /opt/altera/nios2eds/bin/gnu/H-i686-pc-linux-gnu/bin/../lib/gcc/nios2-elf/4.1.2/mno-hw-mul/libgcc.a(_usi_to_df.o)
 .debug_info    0x0001970c       0xf3 /opt/altera/nios2eds/bin/gnu/H-i686-pc-linux-gnu/bin/../lib/gcc/nios2-elf/4.1.2/mno-hw-mul/libgcc.a(lib2-mul.o)
 .debug_info    0x000197ff      0x210 /opt/altera/nios2eds/bin/gnu/H-i686-pc-linux-gnu/bin/../lib/gcc/nios2-elf/4.1.2/mno-hw-mul/libgcc.a(_muldi3.o)
 .debug_info    0x00019a0f       0xc9 /opt/altera/nios2eds/bin/gnu/H-i686-pc-linux-gnu/bin/../lib/gcc/nios2-elf/4.1.2/mno-hw-mul/libgcc.a(_clz.o)
 .debug_info    0x00019ad8      0x130 /opt/altera/nios2eds/bin/gnu/H-i686-pc-linux-gnu/bin/../lib/gcc/nios2-elf/4.1.2/mno-hw-mul/libgcc.a(_clzsi2.o)
 .debug_info    0x00019c08      0x2fc /opt/altera/nios2eds/bin/gnu/H-i686-pc-linux-gnu/bin/../lib/gcc/nios2-elf/4.1.2/mno-hw-mul/libgcc.a(_pack_df.o)
 .debug_info    0x00019f04      0x268 /opt/altera/nios2eds/bin/gnu/H-i686-pc-linux-gnu/bin/../lib/gcc/nios2-elf/4.1.2/mno-hw-mul/libgcc.a(_unpack_df.o)
 .debug_info    0x0001a16c      0x21b /opt/altera/nios2eds/bin/gnu/H-i686-pc-linux-gnu/bin/../lib/gcc/nios2-elf/4.1.2/mno-hw-mul/libgcc.a(_fpcmp_parts_df.o)
 .debug_info    0x0001a387      0x4b9 ../de1_ucosii_tutorial_bsp//libucosii_bsp.a(alt_close.o)
 .debug_info    0x0001a840      0x7db ../de1_ucosii_tutorial_bsp//libucosii_bsp.a(alt_dev.o)
 .debug_info    0x0001b01b      0x162 ../de1_ucosii_tutorial_bsp//libucosii_bsp.a(alt_errno.o)
 .debug_info    0x0001b17d      0x206 ../de1_ucosii_tutorial_bsp//libucosii_bsp.a(alt_exit.o)
 .debug_info    0x0001b383      0x6b2 ../de1_ucosii_tutorial_bsp//libucosii_bsp.a(alt_fstat.o)
 .debug_info    0x0001ba35      0x6b8 ../de1_ucosii_tutorial_bsp//libucosii_bsp.a(alt_isatty.o)
 .debug_info    0x0001c0ed      0x28b ../de1_ucosii_tutorial_bsp//libucosii_bsp.a(alt_load.o)
 .debug_info    0x0001c378      0x4ec ../de1_ucosii_tutorial_bsp//libucosii_bsp.a(alt_lseek.o)
 .debug_info    0x0001c864      0x3db ../de1_ucosii_tutorial_bsp//libucosii_bsp.a(alt_main.o)
 .debug_info    0x0001cc3f      0x6dc ../de1_ucosii_tutorial_bsp//libucosii_bsp.a(alt_read.o)
 .debug_info    0x0001d31b      0x44d ../de1_ucosii_tutorial_bsp//libucosii_bsp.a(alt_release_fd.o)
 .debug_info    0x0001d768      0x2b5 ../de1_ucosii_tutorial_bsp//libucosii_bsp.a(alt_sbrk.o)
 .debug_info    0x0001da1d      0x6e5 ../de1_ucosii_tutorial_bsp//libucosii_bsp.a(alt_write.o)
 .debug_info    0x0001e102     0x11d1 ../de1_ucosii_tutorial_bsp//libucosii_bsp.a(alt_env_lock.o)
 .debug_info    0x0001f2d3     0x132d ../de1_ucosii_tutorial_bsp//libucosii_bsp.a(alt_malloc_lock.o)
 .debug_info    0x00020600     0x1be7 ../de1_ucosii_tutorial_bsp//libucosii_bsp.a(os_core.o)
 .debug_info    0x000221e7     0x112c ../de1_ucosii_tutorial_bsp//libucosii_bsp.a(os_dbg.o)
 .debug_info    0x00023313     0x1242 ../de1_ucosii_tutorial_bsp//libucosii_bsp.a(os_flag.o)
 .debug_info    0x00024555      0x80c ../de1_ucosii_tutorial_bsp//libucosii_bsp.a(os_mem.o)
 .debug_info    0x00024d61     0x107c ../de1_ucosii_tutorial_bsp//libucosii_bsp.a(os_q.o)
 .debug_info    0x00025ddd      0xce4 ../de1_ucosii_tutorial_bsp//libucosii_bsp.a(os_sem.o)
 .debug_info    0x00026ac1     0x135a ../de1_ucosii_tutorial_bsp//libucosii_bsp.a(os_task.o)
 .debug_info    0x00027e1b      0x9de ../de1_ucosii_tutorial_bsp//libucosii_bsp.a(os_time.o)
 .debug_info    0x000287f9      0x919 ../de1_ucosii_tutorial_bsp//libucosii_bsp.a(alt_sys_init.o)
 .debug_info    0x00029112      0x9d0 ../de1_ucosii_tutorial_bsp//libucosii_bsp.a(altera_avalon_jtag_uart_fd.o)
 .debug_info    0x00029ae2      0x94e ../de1_ucosii_tutorial_bsp//libucosii_bsp.a(altera_avalon_jtag_uart_init.o)
 .debug_info    0x0002a430      0x63a ../de1_ucosii_tutorial_bsp//libucosii_bsp.a(altera_avalon_jtag_uart_ioctl.o)
 .debug_info    0x0002aa6a      0x7f6 ../de1_ucosii_tutorial_bsp//libucosii_bsp.a(altera_avalon_jtag_uart_read.o)
 .debug_info    0x0002b260      0x7ed ../de1_ucosii_tutorial_bsp//libucosii_bsp.a(altera_avalon_jtag_uart_write.o)
 .debug_info    0x0002ba4d      0x389 ../de1_ucosii_tutorial_bsp//libucosii_bsp.a(altera_avalon_timer_sc.o)
 .debug_info    0x0002bdd6      0x440 ../de1_ucosii_tutorial_bsp//libucosii_bsp.a(alt_alarm_start.o)
 .debug_info    0x0002c216      0x15a ../de1_ucosii_tutorial_bsp//libucosii_bsp.a(alt_dcache_flush_all.o)
 .debug_info    0x0002c370      0x2b5 ../de1_ucosii_tutorial_bsp//libucosii_bsp.a(alt_dev_llist_insert.o)
 .debug_info    0x0002c625      0x10d ../de1_ucosii_tutorial_bsp//libucosii_bsp.a(alt_do_ctors.o)
 .debug_info    0x0002c732      0x10c ../de1_ucosii_tutorial_bsp//libucosii_bsp.a(alt_do_dtors.o)
 .debug_info    0x0002c83e      0x15a ../de1_ucosii_tutorial_bsp//libucosii_bsp.a(alt_icache_flush_all.o)
 .debug_info    0x0002c998      0x491 ../de1_ucosii_tutorial_bsp//libucosii_bsp.a(alt_iic.o)
 .debug_info    0x0002ce29      0x312 ../de1_ucosii_tutorial_bsp//libucosii_bsp.a(alt_iic_isr_register.o)
 .debug_info    0x0002d13b      0x6e7 ../de1_ucosii_tutorial_bsp//libucosii_bsp.a(alt_io_redirect.o)
 .debug_info    0x0002d822       0x82 ../de1_ucosii_tutorial_bsp//libucosii_bsp.a(alt_irq_entry.o)
 .debug_info    0x0002d8a4      0x2b8 ../de1_ucosii_tutorial_bsp//libucosii_bsp.a(alt_irq_handler.o)
 .debug_info    0x0002db5c      0x165 ../de1_ucosii_tutorial_bsp//libucosii_bsp.a(alt_irq_vars.o)
 .debug_info    0x0002dcc1      0x568 ../de1_ucosii_tutorial_bsp//libucosii_bsp.a(alt_open.o)
 .debug_info    0x0002e229      0x40f ../de1_ucosii_tutorial_bsp//libucosii_bsp.a(alt_tick.o)
 .debug_info    0x0002e638      0x161 ../de1_ucosii_tutorial_bsp//libucosii_bsp.a(altera_nios2_qsys_irq.o)
 .debug_info    0x0002e799       0x81 ../de1_ucosii_tutorial_bsp//libucosii_bsp.a(os_cpu_a.o)
 .debug_info    0x0002e81a     0x12d1 ../de1_ucosii_tutorial_bsp//libucosii_bsp.a(os_cpu_c.o)
 .debug_info    0x0002faeb       0x88 ../de1_ucosii_tutorial_bsp//libucosii_bsp.a(alt_exception_entry.o)
 .debug_info    0x0002fb73      0x46a ../de1_ucosii_tutorial_bsp//libucosii_bsp.a(alt_find_dev.o)
 .debug_info    0x0002ffdd      0x471 ../de1_ucosii_tutorial_bsp//libucosii_bsp.a(alt_find_file.o)
 .debug_info    0x0003044e      0x603 ../de1_ucosii_tutorial_bsp//libucosii_bsp.a(alt_get_fd.o)
 .debug_info    0x00030a51      0x181 /opt/altera/nios2eds/bin/gnu/H-i686-pc-linux-gnu/bin/../lib/gcc/nios2-elf/4.1.2/../../../../nios2-elf/lib/mno-hw-mul/libc.a(lib_a-atexit.o)
 .debug_info    0x00030bd2      0x115 /opt/altera/nios2eds/bin/gnu/H-i686-pc-linux-gnu/bin/../lib/gcc/nios2-elf/4.1.2/../../../../nios2-elf/lib/mno-hw-mul/libc.a(lib_a-memcmp.o)
 .debug_info    0x00030ce7      0x99c /opt/altera/nios2eds/bin/gnu/H-i686-pc-linux-gnu/bin/../lib/gcc/nios2-elf/4.1.2/../../../../nios2-elf/lib/mno-hw-mul/libc.a(lib_a-__atexit.o)

.debug_abbrev   0x00000000     0x972e
 *(.debug_abbrev)
 .debug_abbrev  0x00000000       0x12 ../de1_ucosii_tutorial_bsp//obj/HAL/src/crt0.o
 .debug_abbrev  0x00000012      0x195 obj/default/alt_ucosii_simple_error_check.o
 .debug_abbrev  0x000001a7      0x191 obj/default/producer_consumer.o
 .debug_abbrev  0x00000338       0xe0 /opt/altera/nios2eds/bin/gnu/H-i686-pc-linux-gnu/bin/../lib/gcc/nios2-elf/4.1.2/mno-hw-mul/libgcc.a(lib2-divmod.o)
 .debug_abbrev  0x00000418      0x16e /opt/altera/nios2eds/bin/gnu/H-i686-pc-linux-gnu/bin/../lib/gcc/nios2-elf/4.1.2/../../../../nios2-elf/lib/mno-hw-mul/libc.a(lib_a-exit.o)
 .debug_abbrev  0x00000586      0x197 /opt/altera/nios2eds/bin/gnu/H-i686-pc-linux-gnu/bin/../lib/gcc/nios2-elf/4.1.2/../../../../nios2-elf/lib/mno-hw-mul/libc.a(lib_a-fprintf.o)
 .debug_abbrev  0x0000071d      0x1b1 /opt/altera/nios2eds/bin/gnu/H-i686-pc-linux-gnu/bin/../lib/gcc/nios2-elf/4.1.2/../../../../nios2-elf/lib/mno-hw-mul/libc.a(lib_a-fwrite.o)
 .debug_abbrev  0x000008ce      0x157 /opt/altera/nios2eds/bin/gnu/H-i686-pc-linux-gnu/bin/../lib/gcc/nios2-elf/4.1.2/../../../../nios2-elf/lib/mno-hw-mul/libc.a(lib_a-impure.o)
 .debug_abbrev  0x00000a25      0x191 /opt/altera/nios2eds/bin/gnu/H-i686-pc-linux-gnu/bin/../lib/gcc/nios2-elf/4.1.2/../../../../nios2-elf/lib/mno-hw-mul/libc.a(lib_a-printf.o)
 .debug_abbrev  0x00000bb6      0x1ac /opt/altera/nios2eds/bin/gnu/H-i686-pc-linux-gnu/bin/../lib/gcc/nios2-elf/4.1.2/../../../../nios2-elf/lib/mno-hw-mul/libc.a(lib_a-puts.o)
 .debug_abbrev  0x00000d62       0x8b /opt/altera/nios2eds/bin/gnu/H-i686-pc-linux-gnu/bin/../lib/gcc/nios2-elf/4.1.2/../../../../nios2-elf/lib/mno-hw-mul/libc.a(lib_a-strlen.o)
 .debug_abbrev  0x00000ded      0x30a /opt/altera/nios2eds/bin/gnu/H-i686-pc-linux-gnu/bin/../lib/gcc/nios2-elf/4.1.2/../../../../nios2-elf/lib/mno-hw-mul/libc.a(lib_a-vfprintf.o)
 .debug_abbrev  0x000010f7      0x170 /opt/altera/nios2eds/bin/gnu/H-i686-pc-linux-gnu/bin/../lib/gcc/nios2-elf/4.1.2/../../../../nios2-elf/lib/mno-hw-mul/libc.a(lib_a-wsetup.o)
 .debug_abbrev  0x00001267      0x1de /opt/altera/nios2eds/bin/gnu/H-i686-pc-linux-gnu/bin/../lib/gcc/nios2-elf/4.1.2/../../../../nios2-elf/lib/mno-hw-mul/libc.a(lib_a-__call_atexit.o)
 .debug_abbrev  0x00001445      0x232 /opt/altera/nios2eds/bin/gnu/H-i686-pc-linux-gnu/bin/../lib/gcc/nios2-elf/4.1.2/../../../../nios2-elf/lib/mno-hw-mul/libc.a(lib_a-dtoa.o)
 .debug_abbrev  0x00001677      0x1c6 /opt/altera/nios2eds/bin/gnu/H-i686-pc-linux-gnu/bin/../lib/gcc/nios2-elf/4.1.2/../../../../nios2-elf/lib/mno-hw-mul/libc.a(lib_a-fflush.o)
 .debug_abbrev  0x0000183d      0x24c /opt/altera/nios2eds/bin/gnu/H-i686-pc-linux-gnu/bin/../lib/gcc/nios2-elf/4.1.2/../../../../nios2-elf/lib/mno-hw-mul/libc.a(lib_a-findfp.o)
 .debug_abbrev  0x00001a89      0x1d9 /opt/altera/nios2eds/bin/gnu/H-i686-pc-linux-gnu/bin/../lib/gcc/nios2-elf/4.1.2/../../../../nios2-elf/lib/mno-hw-mul/libc.a(lib_a-freer.o)
 .debug_abbrev  0x00001c62      0x1a3 /opt/altera/nios2eds/bin/gnu/H-i686-pc-linux-gnu/bin/../lib/gcc/nios2-elf/4.1.2/../../../../nios2-elf/lib/mno-hw-mul/libc.a(lib_a-fvwrite.o)
 .debug_abbrev  0x00001e05      0x1e3 /opt/altera/nios2eds/bin/gnu/H-i686-pc-linux-gnu/bin/../lib/gcc/nios2-elf/4.1.2/../../../../nios2-elf/lib/mno-hw-mul/libc.a(lib_a-fwalk.o)
 .debug_abbrev  0x00001fe8      0x1ed /opt/altera/nios2eds/bin/gnu/H-i686-pc-linux-gnu/bin/../lib/gcc/nios2-elf/4.1.2/../../../../nios2-elf/lib/mno-hw-mul/libc.a(lib_a-locale.o)
 .debug_abbrev  0x000021d5      0x197 /opt/altera/nios2eds/bin/gnu/H-i686-pc-linux-gnu/bin/../lib/gcc/nios2-elf/4.1.2/../../../../nios2-elf/lib/mno-hw-mul/libc.a(lib_a-makebuf.o)
 .debug_abbrev  0x0000236c      0x216 /opt/altera/nios2eds/bin/gnu/H-i686-pc-linux-gnu/bin/../lib/gcc/nios2-elf/4.1.2/../../../../nios2-elf/lib/mno-hw-mul/libc.a(lib_a-mallocr.o)
 .debug_abbrev  0x00002582       0xb5 /opt/altera/nios2eds/bin/gnu/H-i686-pc-linux-gnu/bin/../lib/gcc/nios2-elf/4.1.2/../../../../nios2-elf/lib/mno-hw-mul/libc.a(lib_a-memchr.o)
 .debug_abbrev  0x00002637       0xb5 /opt/altera/nios2eds/bin/gnu/H-i686-pc-linux-gnu/bin/../lib/gcc/nios2-elf/4.1.2/../../../../nios2-elf/lib/mno-hw-mul/libc.a(lib_a-memcpy.o)
 .debug_abbrev  0x000026ec       0xb5 /opt/altera/nios2eds/bin/gnu/H-i686-pc-linux-gnu/bin/../lib/gcc/nios2-elf/4.1.2/../../../../nios2-elf/lib/mno-hw-mul/libc.a(lib_a-memmove.o)
 .debug_abbrev  0x000027a1       0xb8 /opt/altera/nios2eds/bin/gnu/H-i686-pc-linux-gnu/bin/../lib/gcc/nios2-elf/4.1.2/../../../../nios2-elf/lib/mno-hw-mul/libc.a(lib_a-memset.o)
 .debug_abbrev  0x00002859      0x297 /opt/altera/nios2eds/bin/gnu/H-i686-pc-linux-gnu/bin/../lib/gcc/nios2-elf/4.1.2/../../../../nios2-elf/lib/mno-hw-mul/libc.a(lib_a-mprec.o)
 .debug_abbrev  0x00002af0      0x1c3 /opt/altera/nios2eds/bin/gnu/H-i686-pc-linux-gnu/bin/../lib/gcc/nios2-elf/4.1.2/../../../../nios2-elf/lib/mno-hw-mul/libc.a(lib_a-reallocr.o)
 .debug_abbrev  0x00002cb3       0x79 /opt/altera/nios2eds/bin/gnu/H-i686-pc-linux-gnu/bin/../lib/gcc/nios2-elf/4.1.2/../../../../nios2-elf/lib/mno-hw-mul/libc.a(lib_a-s_isinfd.o)
 .debug_abbrev  0x00002d2c       0x79 /opt/altera/nios2eds/bin/gnu/H-i686-pc-linux-gnu/bin/../lib/gcc/nios2-elf/4.1.2/../../../../nios2-elf/lib/mno-hw-mul/libc.a(lib_a-s_isnand.o)
 .debug_abbrev  0x00002da5      0x18c /opt/altera/nios2eds/bin/gnu/H-i686-pc-linux-gnu/bin/../lib/gcc/nios2-elf/4.1.2/../../../../nios2-elf/lib/mno-hw-mul/libc.a(lib_a-sbrkr.o)
 .debug_abbrev  0x00002f31      0x1c9 /opt/altera/nios2eds/bin/gnu/H-i686-pc-linux-gnu/bin/../lib/gcc/nios2-elf/4.1.2/../../../../nios2-elf/lib/mno-hw-mul/libc.a(lib_a-stdio.o)
 .debug_abbrev  0x000030fa       0x80 /opt/altera/nios2eds/bin/gnu/H-i686-pc-linux-gnu/bin/../lib/gcc/nios2-elf/4.1.2/../../../../nios2-elf/lib/mno-hw-mul/libc.a(lib_a-strcmp.o)
 .debug_abbrev  0x0000317a      0x184 /opt/altera/nios2eds/bin/gnu/H-i686-pc-linux-gnu/bin/../lib/gcc/nios2-elf/4.1.2/../../../../nios2-elf/lib/mno-hw-mul/libc.a(lib_a-writer.o)
 .debug_abbrev  0x000032fe      0x1b8 /opt/altera/nios2eds/bin/gnu/H-i686-pc-linux-gnu/bin/../lib/gcc/nios2-elf/4.1.2/../../../../nios2-elf/lib/mno-hw-mul/libc.a(lib_a-callocr.o)
 .debug_abbrev  0x000034b6      0x17f /opt/altera/nios2eds/bin/gnu/H-i686-pc-linux-gnu/bin/../lib/gcc/nios2-elf/4.1.2/../../../../nios2-elf/lib/mno-hw-mul/libc.a(lib_a-closer.o)
 .debug_abbrev  0x00003635      0x1a7 /opt/altera/nios2eds/bin/gnu/H-i686-pc-linux-gnu/bin/../lib/gcc/nios2-elf/4.1.2/../../../../nios2-elf/lib/mno-hw-mul/libc.a(lib_a-fclose.o)
 .debug_abbrev  0x000037dc      0x18e /opt/altera/nios2eds/bin/gnu/H-i686-pc-linux-gnu/bin/../lib/gcc/nios2-elf/4.1.2/../../../../nios2-elf/lib/mno-hw-mul/libc.a(lib_a-fstatr.o)
 .debug_abbrev  0x0000396a       0x3b /opt/altera/nios2eds/bin/gnu/H-i686-pc-linux-gnu/bin/../lib/gcc/nios2-elf/4.1.2/../../../../nios2-elf/lib/mno-hw-mul/libc.a(lib_a-int_errno.o)
 .debug_abbrev  0x000039a5      0x17f /opt/altera/nios2eds/bin/gnu/H-i686-pc-linux-gnu/bin/../lib/gcc/nios2-elf/4.1.2/../../../../nios2-elf/lib/mno-hw-mul/libc.a(lib_a-isattyr.o)
 .debug_abbrev  0x00003b24      0x18e /opt/altera/nios2eds/bin/gnu/H-i686-pc-linux-gnu/bin/../lib/gcc/nios2-elf/4.1.2/../../../../nios2-elf/lib/mno-hw-mul/libc.a(lib_a-lseekr.o)
 .debug_abbrev  0x00003cb2      0x17f /opt/altera/nios2eds/bin/gnu/H-i686-pc-linux-gnu/bin/../lib/gcc/nios2-elf/4.1.2/../../../../nios2-elf/lib/mno-hw-mul/libc.a(lib_a-readr.o)
 .debug_abbrev  0x00003e31      0x16b /opt/altera/nios2eds/bin/gnu/H-i686-pc-linux-gnu/bin/../lib/gcc/nios2-elf/4.1.2/mno-hw-mul/libgcc.a(_udivdi3.o)
 .debug_abbrev  0x00003f9c      0x18e /opt/altera/nios2eds/bin/gnu/H-i686-pc-linux-gnu/bin/../lib/gcc/nios2-elf/4.1.2/mno-hw-mul/libgcc.a(_umoddi3.o)
 .debug_abbrev  0x0000412a      0x1d2 /opt/altera/nios2eds/bin/gnu/H-i686-pc-linux-gnu/bin/../lib/gcc/nios2-elf/4.1.2/mno-hw-mul/libgcc.a(_addsub_df.o)
 .debug_abbrev  0x000042fc      0x204 /opt/altera/nios2eds/bin/gnu/H-i686-pc-linux-gnu/bin/../lib/gcc/nios2-elf/4.1.2/mno-hw-mul/libgcc.a(_mul_df.o)
 .debug_abbrev  0x00004500      0x1e3 /opt/altera/nios2eds/bin/gnu/H-i686-pc-linux-gnu/bin/../lib/gcc/nios2-elf/4.1.2/mno-hw-mul/libgcc.a(_div_df.o)
 .debug_abbrev  0x000046e3      0x151 /opt/altera/nios2eds/bin/gnu/H-i686-pc-linux-gnu/bin/../lib/gcc/nios2-elf/4.1.2/mno-hw-mul/libgcc.a(_eq_df.o)
 .debug_abbrev  0x00004834      0x151 /opt/altera/nios2eds/bin/gnu/H-i686-pc-linux-gnu/bin/../lib/gcc/nios2-elf/4.1.2/mno-hw-mul/libgcc.a(_ne_df.o)
 .debug_abbrev  0x00004985      0x151 /opt/altera/nios2eds/bin/gnu/H-i686-pc-linux-gnu/bin/../lib/gcc/nios2-elf/4.1.2/mno-hw-mul/libgcc.a(_gt_df.o)
 .debug_abbrev  0x00004ad6      0x151 /opt/altera/nios2eds/bin/gnu/H-i686-pc-linux-gnu/bin/../lib/gcc/nios2-elf/4.1.2/mno-hw-mul/libgcc.a(_ge_df.o)
 .debug_abbrev  0x00004c27      0x151 /opt/altera/nios2eds/bin/gnu/H-i686-pc-linux-gnu/bin/../lib/gcc/nios2-elf/4.1.2/mno-hw-mul/libgcc.a(_lt_df.o)
 .debug_abbrev  0x00004d78      0x13f /opt/altera/nios2eds/bin/gnu/H-i686-pc-linux-gnu/bin/../lib/gcc/nios2-elf/4.1.2/mno-hw-mul/libgcc.a(_si_to_df.o)
 .debug_abbrev  0x00004eb7      0x176 /opt/altera/nios2eds/bin/gnu/H-i686-pc-linux-gnu/bin/../lib/gcc/nios2-elf/4.1.2/mno-hw-mul/libgcc.a(_df_to_si.o)
 .debug_abbrev  0x0000502d       0xba /opt/altera/nios2eds/bin/gnu/H-i686-pc-linux-gnu/bin/../lib/gcc/nios2-elf/4.1.2/mno-hw-mul/libgcc.a(_thenan_df.o)
 .debug_abbrev  0x000050e7      0x155 /opt/altera/nios2eds/bin/gnu/H-i686-pc-linux-gnu/bin/../lib/gcc/nios2-elf/4.1.2/mno-hw-mul/libgcc.a(_usi_to_df.o)
 .debug_abbrev  0x0000523c       0x7b /opt/altera/nios2eds/bin/gnu/H-i686-pc-linux-gnu/bin/../lib/gcc/nios2-elf/4.1.2/mno-hw-mul/libgcc.a(lib2-mul.o)
 .debug_abbrev  0x000052b7       0xfb /opt/altera/nios2eds/bin/gnu/H-i686-pc-linux-gnu/bin/../lib/gcc/nios2-elf/4.1.2/mno-hw-mul/libgcc.a(_muldi3.o)
 .debug_abbrev  0x000053b2       0x61 /opt/altera/nios2eds/bin/gnu/H-i686-pc-linux-gnu/bin/../lib/gcc/nios2-elf/4.1.2/mno-hw-mul/libgcc.a(_clz.o)
 .debug_abbrev  0x00005413       0xb9 /opt/altera/nios2eds/bin/gnu/H-i686-pc-linux-gnu/bin/../lib/gcc/nios2-elf/4.1.2/mno-hw-mul/libgcc.a(_clzsi2.o)
 .debug_abbrev  0x000054cc      0x1b1 /opt/altera/nios2eds/bin/gnu/H-i686-pc-linux-gnu/bin/../lib/gcc/nios2-elf/4.1.2/mno-hw-mul/libgcc.a(_pack_df.o)
 .debug_abbrev  0x0000567d      0x149 /opt/altera/nios2eds/bin/gnu/H-i686-pc-linux-gnu/bin/../lib/gcc/nios2-elf/4.1.2/mno-hw-mul/libgcc.a(_unpack_df.o)
 .debug_abbrev  0x000057c6      0x132 /opt/altera/nios2eds/bin/gnu/H-i686-pc-linux-gnu/bin/../lib/gcc/nios2-elf/4.1.2/mno-hw-mul/libgcc.a(_fpcmp_parts_df.o)
 .debug_abbrev  0x000058f8      0x102 ../de1_ucosii_tutorial_bsp//libucosii_bsp.a(alt_close.o)
 .debug_abbrev  0x000059fa      0x10a ../de1_ucosii_tutorial_bsp//libucosii_bsp.a(alt_dev.o)
 .debug_abbrev  0x00005b04       0x5e ../de1_ucosii_tutorial_bsp//libucosii_bsp.a(alt_errno.o)
 .debug_abbrev  0x00005b62       0xaa ../de1_ucosii_tutorial_bsp//libucosii_bsp.a(alt_exit.o)
 .debug_abbrev  0x00005c0c      0x102 ../de1_ucosii_tutorial_bsp//libucosii_bsp.a(alt_fstat.o)
 .debug_abbrev  0x00005d0e      0x102 ../de1_ucosii_tutorial_bsp//libucosii_bsp.a(alt_isatty.o)
 .debug_abbrev  0x00005e10       0x88 ../de1_ucosii_tutorial_bsp//libucosii_bsp.a(alt_load.o)
 .debug_abbrev  0x00005e98      0x102 ../de1_ucosii_tutorial_bsp//libucosii_bsp.a(alt_lseek.o)
 .debug_abbrev  0x00005f9a      0x120 ../de1_ucosii_tutorial_bsp//libucosii_bsp.a(alt_main.o)
 .debug_abbrev  0x000060ba      0x102 ../de1_ucosii_tutorial_bsp//libucosii_bsp.a(alt_read.o)
 .debug_abbrev  0x000061bc       0xd3 ../de1_ucosii_tutorial_bsp//libucosii_bsp.a(alt_release_fd.o)
 .debug_abbrev  0x0000628f      0x115 ../de1_ucosii_tutorial_bsp//libucosii_bsp.a(alt_sbrk.o)
 .debug_abbrev  0x000063a4      0x107 ../de1_ucosii_tutorial_bsp//libucosii_bsp.a(alt_write.o)
 .debug_abbrev  0x000064ab      0x1b3 ../de1_ucosii_tutorial_bsp//libucosii_bsp.a(alt_env_lock.o)
 .debug_abbrev  0x0000665e      0x234 ../de1_ucosii_tutorial_bsp//libucosii_bsp.a(alt_malloc_lock.o)
 .debug_abbrev  0x00006892      0x2aa ../de1_ucosii_tutorial_bsp//libucosii_bsp.a(os_core.o)
 .debug_abbrev  0x00006b3c      0x114 ../de1_ucosii_tutorial_bsp//libucosii_bsp.a(os_dbg.o)
 .debug_abbrev  0x00006c50      0x21b ../de1_ucosii_tutorial_bsp//libucosii_bsp.a(os_flag.o)
 .debug_abbrev  0x00006e6b      0x235 ../de1_ucosii_tutorial_bsp//libucosii_bsp.a(os_mem.o)
 .debug_abbrev  0x000070a0      0x20d ../de1_ucosii_tutorial_bsp//libucosii_bsp.a(os_q.o)
 .debug_abbrev  0x000072ad      0x20d ../de1_ucosii_tutorial_bsp//libucosii_bsp.a(os_sem.o)
 .debug_abbrev  0x000074ba      0x20e ../de1_ucosii_tutorial_bsp//libucosii_bsp.a(os_task.o)
 .debug_abbrev  0x000076c8      0x1de ../de1_ucosii_tutorial_bsp//libucosii_bsp.a(os_time.o)
 .debug_abbrev  0x000078a6      0x187 ../de1_ucosii_tutorial_bsp//libucosii_bsp.a(alt_sys_init.o)
 .debug_abbrev  0x00007a2d      0x13c ../de1_ucosii_tutorial_bsp//libucosii_bsp.a(altera_avalon_jtag_uart_fd.o)
 .debug_abbrev  0x00007b69      0x21e ../de1_ucosii_tutorial_bsp//libucosii_bsp.a(altera_avalon_jtag_uart_init.o)
 .debug_abbrev  0x00007d87      0x135 ../de1_ucosii_tutorial_bsp//libucosii_bsp.a(altera_avalon_jtag_uart_ioctl.o)
 .debug_abbrev  0x00007ebc      0x1ee ../de1_ucosii_tutorial_bsp//libucosii_bsp.a(altera_avalon_jtag_uart_read.o)
 .debug_abbrev  0x000080aa      0x1ea ../de1_ucosii_tutorial_bsp//libucosii_bsp.a(altera_avalon_jtag_uart_write.o)
 .debug_abbrev  0x00008294      0x137 ../de1_ucosii_tutorial_bsp//libucosii_bsp.a(altera_avalon_timer_sc.o)
 .debug_abbrev  0x000083cb      0x172 ../de1_ucosii_tutorial_bsp//libucosii_bsp.a(alt_alarm_start.o)
 .debug_abbrev  0x0000853d       0x3f ../de1_ucosii_tutorial_bsp//libucosii_bsp.a(alt_dcache_flush_all.o)
 .debug_abbrev  0x0000857c       0xf6 ../de1_ucosii_tutorial_bsp//libucosii_bsp.a(alt_dev_llist_insert.o)
 .debug_abbrev  0x00008672       0x76 ../de1_ucosii_tutorial_bsp//libucosii_bsp.a(alt_do_ctors.o)
 .debug_abbrev  0x000086e8       0x76 ../de1_ucosii_tutorial_bsp//libucosii_bsp.a(alt_do_dtors.o)
 .debug_abbrev  0x0000875e       0x3f ../de1_ucosii_tutorial_bsp//libucosii_bsp.a(alt_icache_flush_all.o)
 .debug_abbrev  0x0000879d      0x134 ../de1_ucosii_tutorial_bsp//libucosii_bsp.a(alt_iic.o)
 .debug_abbrev  0x000088d1      0x14e ../de1_ucosii_tutorial_bsp//libucosii_bsp.a(alt_iic_isr_register.o)
 .debug_abbrev  0x00008a1f       0xf7 ../de1_ucosii_tutorial_bsp//libucosii_bsp.a(alt_io_redirect.o)
 .debug_abbrev  0x00008b16       0x12 ../de1_ucosii_tutorial_bsp//libucosii_bsp.a(alt_irq_entry.o)
 .debug_abbrev  0x00008b28      0x124 ../de1_ucosii_tutorial_bsp//libucosii_bsp.a(alt_irq_handler.o)
 .debug_abbrev  0x00008c4c       0x44 ../de1_ucosii_tutorial_bsp//libucosii_bsp.a(alt_irq_vars.o)
 .debug_abbrev  0x00008c90      0x119 ../de1_ucosii_tutorial_bsp//libucosii_bsp.a(alt_open.o)
 .debug_abbrev  0x00008da9      0x150 ../de1_ucosii_tutorial_bsp//libucosii_bsp.a(alt_tick.o)
 .debug_abbrev  0x00008ef9       0x3f ../de1_ucosii_tutorial_bsp//libucosii_bsp.a(altera_nios2_qsys_irq.o)
 .debug_abbrev  0x00008f38       0x14 ../de1_ucosii_tutorial_bsp//libucosii_bsp.a(os_cpu_a.o)
 .debug_abbrev  0x00008f4c      0x1d0 ../de1_ucosii_tutorial_bsp//libucosii_bsp.a(os_cpu_c.o)
 .debug_abbrev  0x0000911c       0x12 ../de1_ucosii_tutorial_bsp//libucosii_bsp.a(alt_exception_entry.o)
 .debug_abbrev  0x0000912e       0xd6 ../de1_ucosii_tutorial_bsp//libucosii_bsp.a(alt_find_dev.o)
 .debug_abbrev  0x00009204       0xd6 ../de1_ucosii_tutorial_bsp//libucosii_bsp.a(alt_find_file.o)
 .debug_abbrev  0x000092da      0x173 ../de1_ucosii_tutorial_bsp//libucosii_bsp.a(alt_get_fd.o)
 .debug_abbrev  0x0000944d       0xb7 /opt/altera/nios2eds/bin/gnu/H-i686-pc-linux-gnu/bin/../lib/gcc/nios2-elf/4.1.2/../../../../nios2-elf/lib/mno-hw-mul/libc.a(lib_a-atexit.o)
 .debug_abbrev  0x00009504       0x7c /opt/altera/nios2eds/bin/gnu/H-i686-pc-linux-gnu/bin/../lib/gcc/nios2-elf/4.1.2/../../../../nios2-elf/lib/mno-hw-mul/libc.a(lib_a-memcmp.o)
 .debug_abbrev  0x00009580      0x1ae /opt/altera/nios2eds/bin/gnu/H-i686-pc-linux-gnu/bin/../lib/gcc/nios2-elf/4.1.2/../../../../nios2-elf/lib/mno-hw-mul/libc.a(lib_a-__atexit.o)

.debug_line     0x00000000    0x1bae5
 *(.debug_line)
 .debug_line    0x00000000       0x66 ../de1_ucosii_tutorial_bsp//obj/HAL/src/crt0.o
 .debug_line    0x00000066      0x3ed obj/default/alt_ucosii_simple_error_check.o
 .debug_line    0x00000453      0x795 obj/default/producer_consumer.o
 .debug_line    0x00000be8      0x2c3 /opt/altera/nios2eds/bin/gnu/H-i686-pc-linux-gnu/bin/../lib/gcc/nios2-elf/4.1.2/mno-hw-mul/libgcc.a(lib2-divmod.o)
 .debug_line    0x00000eab      0x235 /opt/altera/nios2eds/bin/gnu/H-i686-pc-linux-gnu/bin/../lib/gcc/nios2-elf/4.1.2/../../../../nios2-elf/lib/mno-hw-mul/libc.a(lib_a-exit.o)
 .debug_line    0x000010e0      0x281 /opt/altera/nios2eds/bin/gnu/H-i686-pc-linux-gnu/bin/../lib/gcc/nios2-elf/4.1.2/../../../../nios2-elf/lib/mno-hw-mul/libc.a(lib_a-fprintf.o)
 .debug_line    0x00001361      0x2de /opt/altera/nios2eds/bin/gnu/H-i686-pc-linux-gnu/bin/../lib/gcc/nios2-elf/4.1.2/../../../../nios2-elf/lib/mno-hw-mul/libc.a(lib_a-fwrite.o)
 .debug_line    0x0000163f      0x227 /opt/altera/nios2eds/bin/gnu/H-i686-pc-linux-gnu/bin/../lib/gcc/nios2-elf/4.1.2/../../../../nios2-elf/lib/mno-hw-mul/libc.a(lib_a-impure.o)
 .debug_line    0x00001866      0x298 /opt/altera/nios2eds/bin/gnu/H-i686-pc-linux-gnu/bin/../lib/gcc/nios2-elf/4.1.2/../../../../nios2-elf/lib/mno-hw-mul/libc.a(lib_a-printf.o)
 .debug_line    0x00001afe      0x2f4 /opt/altera/nios2eds/bin/gnu/H-i686-pc-linux-gnu/bin/../lib/gcc/nios2-elf/4.1.2/../../../../nios2-elf/lib/mno-hw-mul/libc.a(lib_a-puts.o)
 .debug_line    0x00001df2      0x267 /opt/altera/nios2eds/bin/gnu/H-i686-pc-linux-gnu/bin/../lib/gcc/nios2-elf/4.1.2/../../../../nios2-elf/lib/mno-hw-mul/libc.a(lib_a-strlen.o)
 .debug_line    0x00002059     0x1109 /opt/altera/nios2eds/bin/gnu/H-i686-pc-linux-gnu/bin/../lib/gcc/nios2-elf/4.1.2/../../../../nios2-elf/lib/mno-hw-mul/libc.a(lib_a-vfprintf.o)
 .debug_line    0x00003162      0x2ed /opt/altera/nios2eds/bin/gnu/H-i686-pc-linux-gnu/bin/../lib/gcc/nios2-elf/4.1.2/../../../../nios2-elf/lib/mno-hw-mul/libc.a(lib_a-wsetup.o)
 .debug_line    0x0000344f      0x364 /opt/altera/nios2eds/bin/gnu/H-i686-pc-linux-gnu/bin/../lib/gcc/nios2-elf/4.1.2/../../../../nios2-elf/lib/mno-hw-mul/libc.a(lib_a-__call_atexit.o)
 .debug_line    0x000037b3     0x1303 /opt/altera/nios2eds/bin/gnu/H-i686-pc-linux-gnu/bin/../lib/gcc/nios2-elf/4.1.2/../../../../nios2-elf/lib/mno-hw-mul/libc.a(lib_a-dtoa.o)
 .debug_line    0x00004ab6      0x40a /opt/altera/nios2eds/bin/gnu/H-i686-pc-linux-gnu/bin/../lib/gcc/nios2-elf/4.1.2/../../../../nios2-elf/lib/mno-hw-mul/libc.a(lib_a-fflush.o)
 .debug_line    0x00004ec0      0x606 /opt/altera/nios2eds/bin/gnu/H-i686-pc-linux-gnu/bin/../lib/gcc/nios2-elf/4.1.2/../../../../nios2-elf/lib/mno-hw-mul/libc.a(lib_a-findfp.o)
 .debug_line    0x000054c6      0x5e8 /opt/altera/nios2eds/bin/gnu/H-i686-pc-linux-gnu/bin/../lib/gcc/nios2-elf/4.1.2/../../../../nios2-elf/lib/mno-hw-mul/libc.a(lib_a-freer.o)
 .debug_line    0x00005aae      0x63e /opt/altera/nios2eds/bin/gnu/H-i686-pc-linux-gnu/bin/../lib/gcc/nios2-elf/4.1.2/../../../../nios2-elf/lib/mno-hw-mul/libc.a(lib_a-fvwrite.o)
 .debug_line    0x000060ec      0x347 /opt/altera/nios2eds/bin/gnu/H-i686-pc-linux-gnu/bin/../lib/gcc/nios2-elf/4.1.2/../../../../nios2-elf/lib/mno-hw-mul/libc.a(lib_a-fwalk.o)
 .debug_line    0x00006433      0x2c5 /opt/altera/nios2eds/bin/gnu/H-i686-pc-linux-gnu/bin/../lib/gcc/nios2-elf/4.1.2/../../../../nios2-elf/lib/mno-hw-mul/libc.a(lib_a-locale.o)
 .debug_line    0x000066f8      0x3c0 /opt/altera/nios2eds/bin/gnu/H-i686-pc-linux-gnu/bin/../lib/gcc/nios2-elf/4.1.2/../../../../nios2-elf/lib/mno-hw-mul/libc.a(lib_a-makebuf.o)
 .debug_line    0x00006ab8      0x807 /opt/altera/nios2eds/bin/gnu/H-i686-pc-linux-gnu/bin/../lib/gcc/nios2-elf/4.1.2/../../../../nios2-elf/lib/mno-hw-mul/libc.a(lib_a-mallocr.o)
 .debug_line    0x000072bf      0x2fd /opt/altera/nios2eds/bin/gnu/H-i686-pc-linux-gnu/bin/../lib/gcc/nios2-elf/4.1.2/../../../../nios2-elf/lib/mno-hw-mul/libc.a(lib_a-memchr.o)
 .debug_line    0x000075bc      0x1ac /opt/altera/nios2eds/bin/gnu/H-i686-pc-linux-gnu/bin/../lib/gcc/nios2-elf/4.1.2/../../../../nios2-elf/lib/mno-hw-mul/libc.a(lib_a-memcpy.o)
 .debug_line    0x00007768      0x304 /opt/altera/nios2eds/bin/gnu/H-i686-pc-linux-gnu/bin/../lib/gcc/nios2-elf/4.1.2/../../../../nios2-elf/lib/mno-hw-mul/libc.a(lib_a-memmove.o)
 .debug_line    0x00007a6c      0x2fb /opt/altera/nios2eds/bin/gnu/H-i686-pc-linux-gnu/bin/../lib/gcc/nios2-elf/4.1.2/../../../../nios2-elf/lib/mno-hw-mul/libc.a(lib_a-memset.o)
 .debug_line    0x00007d67     0x1258 /opt/altera/nios2eds/bin/gnu/H-i686-pc-linux-gnu/bin/../lib/gcc/nios2-elf/4.1.2/../../../../nios2-elf/lib/mno-hw-mul/libc.a(lib_a-mprec.o)
 .debug_line    0x00008fbf      0x587 /opt/altera/nios2eds/bin/gnu/H-i686-pc-linux-gnu/bin/../lib/gcc/nios2-elf/4.1.2/../../../../nios2-elf/lib/mno-hw-mul/libc.a(lib_a-reallocr.o)
 .debug_line    0x00009546      0x21f /opt/altera/nios2eds/bin/gnu/H-i686-pc-linux-gnu/bin/../lib/gcc/nios2-elf/4.1.2/../../../../nios2-elf/lib/mno-hw-mul/libc.a(lib_a-s_isinfd.o)
 .debug_line    0x00009765      0x217 /opt/altera/nios2eds/bin/gnu/H-i686-pc-linux-gnu/bin/../lib/gcc/nios2-elf/4.1.2/../../../../nios2-elf/lib/mno-hw-mul/libc.a(lib_a-s_isnand.o)
 .debug_line    0x0000997c      0x293 /opt/altera/nios2eds/bin/gnu/H-i686-pc-linux-gnu/bin/../lib/gcc/nios2-elf/4.1.2/../../../../nios2-elf/lib/mno-hw-mul/libc.a(lib_a-sbrkr.o)
 .debug_line    0x00009c0f      0x389 /opt/altera/nios2eds/bin/gnu/H-i686-pc-linux-gnu/bin/../lib/gcc/nios2-elf/4.1.2/../../../../nios2-elf/lib/mno-hw-mul/libc.a(lib_a-stdio.o)
 .debug_line    0x00009f98      0x2cf /opt/altera/nios2eds/bin/gnu/H-i686-pc-linux-gnu/bin/../lib/gcc/nios2-elf/4.1.2/../../../../nios2-elf/lib/mno-hw-mul/libc.a(lib_a-strcmp.o)
 .debug_line    0x0000a267      0x294 /opt/altera/nios2eds/bin/gnu/H-i686-pc-linux-gnu/bin/../lib/gcc/nios2-elf/4.1.2/../../../../nios2-elf/lib/mno-hw-mul/libc.a(lib_a-writer.o)
 .debug_line    0x0000a4fb      0x259 /opt/altera/nios2eds/bin/gnu/H-i686-pc-linux-gnu/bin/../lib/gcc/nios2-elf/4.1.2/../../../../nios2-elf/lib/mno-hw-mul/libc.a(lib_a-callocr.o)
 .debug_line    0x0000a754      0x294 /opt/altera/nios2eds/bin/gnu/H-i686-pc-linux-gnu/bin/../lib/gcc/nios2-elf/4.1.2/../../../../nios2-elf/lib/mno-hw-mul/libc.a(lib_a-closer.o)
 .debug_line    0x0000a9e8      0x2e5 /opt/altera/nios2eds/bin/gnu/H-i686-pc-linux-gnu/bin/../lib/gcc/nios2-elf/4.1.2/../../../../nios2-elf/lib/mno-hw-mul/libc.a(lib_a-fclose.o)
 .debug_line    0x0000accd      0x261 /opt/altera/nios2eds/bin/gnu/H-i686-pc-linux-gnu/bin/../lib/gcc/nios2-elf/4.1.2/../../../../nios2-elf/lib/mno-hw-mul/libc.a(lib_a-fstatr.o)
 .debug_line    0x0000af2e      0x1dc /opt/altera/nios2eds/bin/gnu/H-i686-pc-linux-gnu/bin/../lib/gcc/nios2-elf/4.1.2/../../../../nios2-elf/lib/mno-hw-mul/libc.a(lib_a-int_errno.o)
 .debug_line    0x0000b10a      0x295 /opt/altera/nios2eds/bin/gnu/H-i686-pc-linux-gnu/bin/../lib/gcc/nios2-elf/4.1.2/../../../../nios2-elf/lib/mno-hw-mul/libc.a(lib_a-isattyr.o)
 .debug_line    0x0000b39f      0x294 /opt/altera/nios2eds/bin/gnu/H-i686-pc-linux-gnu/bin/../lib/gcc/nios2-elf/4.1.2/../../../../nios2-elf/lib/mno-hw-mul/libc.a(lib_a-lseekr.o)
 .debug_line    0x0000b633      0x293 /opt/altera/nios2eds/bin/gnu/H-i686-pc-linux-gnu/bin/../lib/gcc/nios2-elf/4.1.2/../../../../nios2-elf/lib/mno-hw-mul/libc.a(lib_a-readr.o)
 .debug_line    0x0000b8c6      0x366 /opt/altera/nios2eds/bin/gnu/H-i686-pc-linux-gnu/bin/../lib/gcc/nios2-elf/4.1.2/mno-hw-mul/libgcc.a(_udivdi3.o)
 .debug_line    0x0000bc2c      0x479 /opt/altera/nios2eds/bin/gnu/H-i686-pc-linux-gnu/bin/../lib/gcc/nios2-elf/4.1.2/mno-hw-mul/libgcc.a(_umoddi3.o)
 .debug_line    0x0000c0a5      0x430 /opt/altera/nios2eds/bin/gnu/H-i686-pc-linux-gnu/bin/../lib/gcc/nios2-elf/4.1.2/mno-hw-mul/libgcc.a(_addsub_df.o)
 .debug_line    0x0000c4d5      0x3e5 /opt/altera/nios2eds/bin/gnu/H-i686-pc-linux-gnu/bin/../lib/gcc/nios2-elf/4.1.2/mno-hw-mul/libgcc.a(_mul_df.o)
 .debug_line    0x0000c8ba      0x301 /opt/altera/nios2eds/bin/gnu/H-i686-pc-linux-gnu/bin/../lib/gcc/nios2-elf/4.1.2/mno-hw-mul/libgcc.a(_div_df.o)
 .debug_line    0x0000cbbb      0x129 /opt/altera/nios2eds/bin/gnu/H-i686-pc-linux-gnu/bin/../lib/gcc/nios2-elf/4.1.2/mno-hw-mul/libgcc.a(_eq_df.o)
 .debug_line    0x0000cce4      0x129 /opt/altera/nios2eds/bin/gnu/H-i686-pc-linux-gnu/bin/../lib/gcc/nios2-elf/4.1.2/mno-hw-mul/libgcc.a(_ne_df.o)
 .debug_line    0x0000ce0d      0x129 /opt/altera/nios2eds/bin/gnu/H-i686-pc-linux-gnu/bin/../lib/gcc/nios2-elf/4.1.2/mno-hw-mul/libgcc.a(_gt_df.o)
 .debug_line    0x0000cf36      0x129 /opt/altera/nios2eds/bin/gnu/H-i686-pc-linux-gnu/bin/../lib/gcc/nios2-elf/4.1.2/mno-hw-mul/libgcc.a(_ge_df.o)
 .debug_line    0x0000d05f      0x129 /opt/altera/nios2eds/bin/gnu/H-i686-pc-linux-gnu/bin/../lib/gcc/nios2-elf/4.1.2/mno-hw-mul/libgcc.a(_lt_df.o)
 .debug_line    0x0000d188      0x175 /opt/altera/nios2eds/bin/gnu/H-i686-pc-linux-gnu/bin/../lib/gcc/nios2-elf/4.1.2/mno-hw-mul/libgcc.a(_si_to_df.o)
 .debug_line    0x0000d2fd      0x149 /opt/altera/nios2eds/bin/gnu/H-i686-pc-linux-gnu/bin/../lib/gcc/nios2-elf/4.1.2/mno-hw-mul/libgcc.a(_df_to_si.o)
 .debug_line    0x0000d446       0x94 /opt/altera/nios2eds/bin/gnu/H-i686-pc-linux-gnu/bin/../lib/gcc/nios2-elf/4.1.2/mno-hw-mul/libgcc.a(_thenan_df.o)
 .debug_line    0x0000d4da      0x189 /opt/altera/nios2eds/bin/gnu/H-i686-pc-linux-gnu/bin/../lib/gcc/nios2-elf/4.1.2/mno-hw-mul/libgcc.a(_usi_to_df.o)
 .debug_line    0x0000d663      0x18e /opt/altera/nios2eds/bin/gnu/H-i686-pc-linux-gnu/bin/../lib/gcc/nios2-elf/4.1.2/mno-hw-mul/libgcc.a(lib2-mul.o)
 .debug_line    0x0000d7f1      0x1c3 /opt/altera/nios2eds/bin/gnu/H-i686-pc-linux-gnu/bin/../lib/gcc/nios2-elf/4.1.2/mno-hw-mul/libgcc.a(_muldi3.o)
 .debug_line    0x0000d9b4      0x11e /opt/altera/nios2eds/bin/gnu/H-i686-pc-linux-gnu/bin/../lib/gcc/nios2-elf/4.1.2/mno-hw-mul/libgcc.a(_clz.o)
 .debug_line    0x0000dad2      0x179 /opt/altera/nios2eds/bin/gnu/H-i686-pc-linux-gnu/bin/../lib/gcc/nios2-elf/4.1.2/mno-hw-mul/libgcc.a(_clzsi2.o)
 .debug_line    0x0000dc4b      0x222 /opt/altera/nios2eds/bin/gnu/H-i686-pc-linux-gnu/bin/../lib/gcc/nios2-elf/4.1.2/mno-hw-mul/libgcc.a(_pack_df.o)
 .debug_line    0x0000de6d      0x1e4 /opt/altera/nios2eds/bin/gnu/H-i686-pc-linux-gnu/bin/../lib/gcc/nios2-elf/4.1.2/mno-hw-mul/libgcc.a(_unpack_df.o)
 .debug_line    0x0000e051      0x187 /opt/altera/nios2eds/bin/gnu/H-i686-pc-linux-gnu/bin/../lib/gcc/nios2-elf/4.1.2/mno-hw-mul/libgcc.a(_fpcmp_parts_df.o)
 .debug_line    0x0000e1d8      0x2f7 ../de1_ucosii_tutorial_bsp//libucosii_bsp.a(alt_close.o)
 .debug_line    0x0000e4cf      0x2b8 ../de1_ucosii_tutorial_bsp//libucosii_bsp.a(alt_dev.o)
 .debug_line    0x0000e787      0x1a8 ../de1_ucosii_tutorial_bsp//libucosii_bsp.a(alt_errno.o)
 .debug_line    0x0000e92f      0x274 ../de1_ucosii_tutorial_bsp//libucosii_bsp.a(alt_exit.o)
 .debug_line    0x0000eba3      0x2ff ../de1_ucosii_tutorial_bsp//libucosii_bsp.a(alt_fstat.o)
 .debug_line    0x0000eea2      0x300 ../de1_ucosii_tutorial_bsp//libucosii_bsp.a(alt_isatty.o)
 .debug_line    0x0000f1a2      0x215 ../de1_ucosii_tutorial_bsp//libucosii_bsp.a(alt_load.o)
 .debug_line    0x0000f3b7      0x2ff ../de1_ucosii_tutorial_bsp//libucosii_bsp.a(alt_lseek.o)
 .debug_line    0x0000f6b6      0x347 ../de1_ucosii_tutorial_bsp//libucosii_bsp.a(alt_main.o)
 .debug_line    0x0000f9fd      0x326 ../de1_ucosii_tutorial_bsp//libucosii_bsp.a(alt_read.o)
 .debug_line    0x0000fd23      0x277 ../de1_ucosii_tutorial_bsp//libucosii_bsp.a(alt_release_fd.o)
 .debug_line    0x0000ff9a      0x25f ../de1_ucosii_tutorial_bsp//libucosii_bsp.a(alt_sbrk.o)
 .debug_line    0x000101f9      0x327 ../de1_ucosii_tutorial_bsp//libucosii_bsp.a(alt_write.o)
 .debug_line    0x00010520      0x2bd ../de1_ucosii_tutorial_bsp//libucosii_bsp.a(alt_env_lock.o)
 .debug_line    0x000107dd      0x379 ../de1_ucosii_tutorial_bsp//libucosii_bsp.a(alt_malloc_lock.o)
 .debug_line    0x00010b56     0x1661 ../de1_ucosii_tutorial_bsp//libucosii_bsp.a(os_core.o)
 .debug_line    0x000121b7      0x386 ../de1_ucosii_tutorial_bsp//libucosii_bsp.a(os_dbg.o)
 .debug_line    0x0001253d     0x11e5 ../de1_ucosii_tutorial_bsp//libucosii_bsp.a(os_flag.o)
 .debug_line    0x00013722      0x788 ../de1_ucosii_tutorial_bsp//libucosii_bsp.a(os_mem.o)
 .debug_line    0x00013eaa      0xe69 ../de1_ucosii_tutorial_bsp//libucosii_bsp.a(os_q.o)
 .debug_line    0x00014d13      0xa21 ../de1_ucosii_tutorial_bsp//libucosii_bsp.a(os_sem.o)
 .debug_line    0x00015734     0x112a ../de1_ucosii_tutorial_bsp//libucosii_bsp.a(os_task.o)
 .debug_line    0x0001685e      0x52d ../de1_ucosii_tutorial_bsp//libucosii_bsp.a(os_time.o)
 .debug_line    0x00016d8b      0x2f7 ../de1_ucosii_tutorial_bsp//libucosii_bsp.a(alt_sys_init.o)
 .debug_line    0x00017082      0x317 ../de1_ucosii_tutorial_bsp//libucosii_bsp.a(altera_avalon_jtag_uart_fd.o)
 .debug_line    0x00017399      0x596 ../de1_ucosii_tutorial_bsp//libucosii_bsp.a(altera_avalon_jtag_uart_init.o)
 .debug_line    0x0001792f      0x354 ../de1_ucosii_tutorial_bsp//libucosii_bsp.a(altera_avalon_jtag_uart_ioctl.o)
 .debug_line    0x00017c83      0x492 ../de1_ucosii_tutorial_bsp//libucosii_bsp.a(altera_avalon_jtag_uart_read.o)
 .debug_line    0x00018115      0x4a0 ../de1_ucosii_tutorial_bsp//libucosii_bsp.a(altera_avalon_jtag_uart_write.o)
 .debug_line    0x000185b5      0x2b1 ../de1_ucosii_tutorial_bsp//libucosii_bsp.a(altera_avalon_timer_sc.o)
 .debug_line    0x00018866      0x2da ../de1_ucosii_tutorial_bsp//libucosii_bsp.a(alt_alarm_start.o)
 .debug_line    0x00018b40      0x1b3 ../de1_ucosii_tutorial_bsp//libucosii_bsp.a(alt_dcache_flush_all.o)
 .debug_line    0x00018cf3      0x258 ../de1_ucosii_tutorial_bsp//libucosii_bsp.a(alt_dev_llist_insert.o)
 .debug_line    0x00018f4b       0x83 ../de1_ucosii_tutorial_bsp//libucosii_bsp.a(alt_do_ctors.o)
 .debug_line    0x00018fce       0x83 ../de1_ucosii_tutorial_bsp//libucosii_bsp.a(alt_do_dtors.o)
 .debug_line    0x00019051      0x1b3 ../de1_ucosii_tutorial_bsp//libucosii_bsp.a(alt_icache_flush_all.o)
 .debug_line    0x00019204      0x2c6 ../de1_ucosii_tutorial_bsp//libucosii_bsp.a(alt_iic.o)
 .debug_line    0x000194ca      0x247 ../de1_ucosii_tutorial_bsp//libucosii_bsp.a(alt_iic_isr_register.o)
 .debug_line    0x00019711      0x321 ../de1_ucosii_tutorial_bsp//libucosii_bsp.a(alt_io_redirect.o)
 .debug_line    0x00019a32       0x6b ../de1_ucosii_tutorial_bsp//libucosii_bsp.a(alt_irq_entry.o)
 .debug_line    0x00019a9d      0x2c2 ../de1_ucosii_tutorial_bsp//libucosii_bsp.a(alt_irq_handler.o)
 .debug_line    0x00019d5f       0x72 ../de1_ucosii_tutorial_bsp//libucosii_bsp.a(alt_irq_vars.o)
 .debug_line    0x00019dd1      0x35d ../de1_ucosii_tutorial_bsp//libucosii_bsp.a(alt_open.o)
 .debug_line    0x0001a12e      0x314 ../de1_ucosii_tutorial_bsp//libucosii_bsp.a(alt_tick.o)
 .debug_line    0x0001a442      0x1cc ../de1_ucosii_tutorial_bsp//libucosii_bsp.a(altera_nios2_qsys_irq.o)
 .debug_line    0x0001a60e       0x86 ../de1_ucosii_tutorial_bsp//libucosii_bsp.a(os_cpu_a.o)
 .debug_line    0x0001a694      0x326 ../de1_ucosii_tutorial_bsp//libucosii_bsp.a(os_cpu_c.o)
 .debug_line    0x0001a9ba       0xab ../de1_ucosii_tutorial_bsp//libucosii_bsp.a(alt_exception_entry.o)
 .debug_line    0x0001aa65      0x2d8 ../de1_ucosii_tutorial_bsp//libucosii_bsp.a(alt_find_dev.o)
 .debug_line    0x0001ad3d      0x2e9 ../de1_ucosii_tutorial_bsp//libucosii_bsp.a(alt_find_file.o)
 .debug_line    0x0001b026      0x319 ../de1_ucosii_tutorial_bsp//libucosii_bsp.a(alt_get_fd.o)
 .debug_line    0x0001b33f      0x1fd /opt/altera/nios2eds/bin/gnu/H-i686-pc-linux-gnu/bin/../lib/gcc/nios2-elf/4.1.2/../../../../nios2-elf/lib/mno-hw-mul/libc.a(lib_a-atexit.o)
 .debug_line    0x0001b53c      0x299 /opt/altera/nios2eds/bin/gnu/H-i686-pc-linux-gnu/bin/../lib/gcc/nios2-elf/4.1.2/../../../../nios2-elf/lib/mno-hw-mul/libc.a(lib_a-memcmp.o)
 .debug_line    0x0001b7d5      0x310 /opt/altera/nios2eds/bin/gnu/H-i686-pc-linux-gnu/bin/../lib/gcc/nios2-elf/4.1.2/../../../../nios2-elf/lib/mno-hw-mul/libc.a(lib_a-__atexit.o)

.debug_frame    0x00000000     0x25c0
 *(.debug_frame)
 .debug_frame   0x00000000       0x48 obj/default/alt_ucosii_simple_error_check.o
 .debug_frame   0x00000048       0xd8 obj/default/producer_consumer.o
 .debug_frame   0x00000120       0x70 /opt/altera/nios2eds/bin/gnu/H-i686-pc-linux-gnu/bin/../lib/gcc/nios2-elf/4.1.2/mno-hw-mul/libgcc.a(lib2-divmod.o)
 .debug_frame   0x00000190       0x28 /opt/altera/nios2eds/bin/gnu/H-i686-pc-linux-gnu/bin/../lib/gcc/nios2-elf/4.1.2/../../../../nios2-elf/lib/mno-hw-mul/libc.a(lib_a-exit.o)
 .debug_frame   0x000001b8       0x40 /opt/altera/nios2eds/bin/gnu/H-i686-pc-linux-gnu/bin/../lib/gcc/nios2-elf/4.1.2/../../../../nios2-elf/lib/mno-hw-mul/libc.a(lib_a-fprintf.o)
 .debug_frame   0x000001f8       0x48 /opt/altera/nios2eds/bin/gnu/H-i686-pc-linux-gnu/bin/../lib/gcc/nios2-elf/4.1.2/../../../../nios2-elf/lib/mno-hw-mul/libc.a(lib_a-fwrite.o)
 .debug_frame   0x00000240       0x40 /opt/altera/nios2eds/bin/gnu/H-i686-pc-linux-gnu/bin/../lib/gcc/nios2-elf/4.1.2/../../../../nios2-elf/lib/mno-hw-mul/libc.a(lib_a-printf.o)
 .debug_frame   0x00000280       0x3c /opt/altera/nios2eds/bin/gnu/H-i686-pc-linux-gnu/bin/../lib/gcc/nios2-elf/4.1.2/../../../../nios2-elf/lib/mno-hw-mul/libc.a(lib_a-puts.o)
 .debug_frame   0x000002bc       0x20 /opt/altera/nios2eds/bin/gnu/H-i686-pc-linux-gnu/bin/../lib/gcc/nios2-elf/4.1.2/../../../../nios2-elf/lib/mno-hw-mul/libc.a(lib_a-strlen.o)
 .debug_frame   0x000002dc       0x64 /opt/altera/nios2eds/bin/gnu/H-i686-pc-linux-gnu/bin/../lib/gcc/nios2-elf/4.1.2/../../../../nios2-elf/lib/mno-hw-mul/libc.a(lib_a-vfprintf.o)
 .debug_frame   0x00000340       0x2c /opt/altera/nios2eds/bin/gnu/H-i686-pc-linux-gnu/bin/../lib/gcc/nios2-elf/4.1.2/../../../../nios2-elf/lib/mno-hw-mul/libc.a(lib_a-wsetup.o)
 .debug_frame   0x0000036c       0x4c /opt/altera/nios2eds/bin/gnu/H-i686-pc-linux-gnu/bin/../lib/gcc/nios2-elf/4.1.2/../../../../nios2-elf/lib/mno-hw-mul/libc.a(lib_a-__call_atexit.o)
 .debug_frame   0x000003b8       0x64 /opt/altera/nios2eds/bin/gnu/H-i686-pc-linux-gnu/bin/../lib/gcc/nios2-elf/4.1.2/../../../../nios2-elf/lib/mno-hw-mul/libc.a(lib_a-dtoa.o)
 .debug_frame   0x0000041c       0x40 /opt/altera/nios2eds/bin/gnu/H-i686-pc-linux-gnu/bin/../lib/gcc/nios2-elf/4.1.2/../../../../nios2-elf/lib/mno-hw-mul/libc.a(lib_a-fflush.o)
 .debug_frame   0x0000045c      0x118 /opt/altera/nios2eds/bin/gnu/H-i686-pc-linux-gnu/bin/../lib/gcc/nios2-elf/4.1.2/../../../../nios2-elf/lib/mno-hw-mul/libc.a(lib_a-findfp.o)
 .debug_frame   0x00000574       0x4c /opt/altera/nios2eds/bin/gnu/H-i686-pc-linux-gnu/bin/../lib/gcc/nios2-elf/4.1.2/../../../../nios2-elf/lib/mno-hw-mul/libc.a(lib_a-freer.o)
 .debug_frame   0x000005c0       0x38 /opt/altera/nios2eds/bin/gnu/H-i686-pc-linux-gnu/bin/../lib/gcc/nios2-elf/4.1.2/../../../../nios2-elf/lib/mno-hw-mul/libc.a(lib_a-fvwrite.o)
 .debug_frame   0x000005f8       0x60 /opt/altera/nios2eds/bin/gnu/H-i686-pc-linux-gnu/bin/../lib/gcc/nios2-elf/4.1.2/../../../../nios2-elf/lib/mno-hw-mul/libc.a(lib_a-fwalk.o)
 .debug_frame   0x00000658       0x70 /opt/altera/nios2eds/bin/gnu/H-i686-pc-linux-gnu/bin/../lib/gcc/nios2-elf/4.1.2/../../../../nios2-elf/lib/mno-hw-mul/libc.a(lib_a-locale.o)
 .debug_frame   0x000006c8       0x2c /opt/altera/nios2eds/bin/gnu/H-i686-pc-linux-gnu/bin/../lib/gcc/nios2-elf/4.1.2/../../../../nios2-elf/lib/mno-hw-mul/libc.a(lib_a-makebuf.o)
 .debug_frame   0x000006f4       0x38 /opt/altera/nios2eds/bin/gnu/H-i686-pc-linux-gnu/bin/../lib/gcc/nios2-elf/4.1.2/../../../../nios2-elf/lib/mno-hw-mul/libc.a(lib_a-mallocr.o)
 .debug_frame   0x0000072c       0x20 /opt/altera/nios2eds/bin/gnu/H-i686-pc-linux-gnu/bin/../lib/gcc/nios2-elf/4.1.2/../../../../nios2-elf/lib/mno-hw-mul/libc.a(lib_a-memchr.o)
 .debug_frame   0x0000074c       0x20 /opt/altera/nios2eds/bin/gnu/H-i686-pc-linux-gnu/bin/../lib/gcc/nios2-elf/4.1.2/../../../../nios2-elf/lib/mno-hw-mul/libc.a(lib_a-memcpy.o)
 .debug_frame   0x0000076c       0x20 /opt/altera/nios2eds/bin/gnu/H-i686-pc-linux-gnu/bin/../lib/gcc/nios2-elf/4.1.2/../../../../nios2-elf/lib/mno-hw-mul/libc.a(lib_a-memmove.o)
 .debug_frame   0x0000078c       0x20 /opt/altera/nios2eds/bin/gnu/H-i686-pc-linux-gnu/bin/../lib/gcc/nios2-elf/4.1.2/../../../../nios2-elf/lib/mno-hw-mul/libc.a(lib_a-memset.o)
 .debug_frame   0x000007ac      0x228 /opt/altera/nios2eds/bin/gnu/H-i686-pc-linux-gnu/bin/../lib/gcc/nios2-elf/4.1.2/../../../../nios2-elf/lib/mno-hw-mul/libc.a(lib_a-mprec.o)
 .debug_frame   0x000009d4       0x38 /opt/altera/nios2eds/bin/gnu/H-i686-pc-linux-gnu/bin/../lib/gcc/nios2-elf/4.1.2/../../../../nios2-elf/lib/mno-hw-mul/libc.a(lib_a-reallocr.o)
 .debug_frame   0x00000a0c       0x20 /opt/altera/nios2eds/bin/gnu/H-i686-pc-linux-gnu/bin/../lib/gcc/nios2-elf/4.1.2/../../../../nios2-elf/lib/mno-hw-mul/libc.a(lib_a-s_isinfd.o)
 .debug_frame   0x00000a2c       0x20 /opt/altera/nios2eds/bin/gnu/H-i686-pc-linux-gnu/bin/../lib/gcc/nios2-elf/4.1.2/../../../../nios2-elf/lib/mno-hw-mul/libc.a(lib_a-s_isnand.o)
 .debug_frame   0x00000a4c       0x2c /opt/altera/nios2eds/bin/gnu/H-i686-pc-linux-gnu/bin/../lib/gcc/nios2-elf/4.1.2/../../../../nios2-elf/lib/mno-hw-mul/libc.a(lib_a-sbrkr.o)
 .debug_frame   0x00000a78       0x78 /opt/altera/nios2eds/bin/gnu/H-i686-pc-linux-gnu/bin/../lib/gcc/nios2-elf/4.1.2/../../../../nios2-elf/lib/mno-hw-mul/libc.a(lib_a-stdio.o)
 .debug_frame   0x00000af0       0x20 /opt/altera/nios2eds/bin/gnu/H-i686-pc-linux-gnu/bin/../lib/gcc/nios2-elf/4.1.2/../../../../nios2-elf/lib/mno-hw-mul/libc.a(lib_a-strcmp.o)
 .debug_frame   0x00000b10       0x2c /opt/altera/nios2eds/bin/gnu/H-i686-pc-linux-gnu/bin/../lib/gcc/nios2-elf/4.1.2/../../../../nios2-elf/lib/mno-hw-mul/libc.a(lib_a-writer.o)
 .debug_frame   0x00000b3c       0x2c /opt/altera/nios2eds/bin/gnu/H-i686-pc-linux-gnu/bin/../lib/gcc/nios2-elf/4.1.2/../../../../nios2-elf/lib/mno-hw-mul/libc.a(lib_a-callocr.o)
 .debug_frame   0x00000b68       0x2c /opt/altera/nios2eds/bin/gnu/H-i686-pc-linux-gnu/bin/../lib/gcc/nios2-elf/4.1.2/../../../../nios2-elf/lib/mno-hw-mul/libc.a(lib_a-closer.o)
 .debug_frame   0x00000b94       0x3c /opt/altera/nios2eds/bin/gnu/H-i686-pc-linux-gnu/bin/../lib/gcc/nios2-elf/4.1.2/../../../../nios2-elf/lib/mno-hw-mul/libc.a(lib_a-fclose.o)
 .debug_frame   0x00000bd0       0x2c /opt/altera/nios2eds/bin/gnu/H-i686-pc-linux-gnu/bin/../lib/gcc/nios2-elf/4.1.2/../../../../nios2-elf/lib/mno-hw-mul/libc.a(lib_a-fstatr.o)
 .debug_frame   0x00000bfc       0x2c /opt/altera/nios2eds/bin/gnu/H-i686-pc-linux-gnu/bin/../lib/gcc/nios2-elf/4.1.2/../../../../nios2-elf/lib/mno-hw-mul/libc.a(lib_a-isattyr.o)
 .debug_frame   0x00000c28       0x2c /opt/altera/nios2eds/bin/gnu/H-i686-pc-linux-gnu/bin/../lib/gcc/nios2-elf/4.1.2/../../../../nios2-elf/lib/mno-hw-mul/libc.a(lib_a-lseekr.o)
 .debug_frame   0x00000c54       0x2c /opt/altera/nios2eds/bin/gnu/H-i686-pc-linux-gnu/bin/../lib/gcc/nios2-elf/4.1.2/../../../../nios2-elf/lib/mno-hw-mul/libc.a(lib_a-readr.o)
 .debug_frame   0x00000c80       0x38 /opt/altera/nios2eds/bin/gnu/H-i686-pc-linux-gnu/bin/../lib/gcc/nios2-elf/4.1.2/mno-hw-mul/libgcc.a(_udivdi3.o)
 .debug_frame   0x00000cb8       0x38 /opt/altera/nios2eds/bin/gnu/H-i686-pc-linux-gnu/bin/../lib/gcc/nios2-elf/4.1.2/mno-hw-mul/libgcc.a(_umoddi3.o)
 .debug_frame   0x00000cf0       0x70 /opt/altera/nios2eds/bin/gnu/H-i686-pc-linux-gnu/bin/../lib/gcc/nios2-elf/4.1.2/mno-hw-mul/libgcc.a(_addsub_df.o)
 .debug_frame   0x00000d60       0x3c /opt/altera/nios2eds/bin/gnu/H-i686-pc-linux-gnu/bin/../lib/gcc/nios2-elf/4.1.2/mno-hw-mul/libgcc.a(_mul_df.o)
 .debug_frame   0x00000d9c       0x30 /opt/altera/nios2eds/bin/gnu/H-i686-pc-linux-gnu/bin/../lib/gcc/nios2-elf/4.1.2/mno-hw-mul/libgcc.a(_div_df.o)
 .debug_frame   0x00000dcc       0x2c /opt/altera/nios2eds/bin/gnu/H-i686-pc-linux-gnu/bin/../lib/gcc/nios2-elf/4.1.2/mno-hw-mul/libgcc.a(_eq_df.o)
 .debug_frame   0x00000df8       0x2c /opt/altera/nios2eds/bin/gnu/H-i686-pc-linux-gnu/bin/../lib/gcc/nios2-elf/4.1.2/mno-hw-mul/libgcc.a(_ne_df.o)
 .debug_frame   0x00000e24       0x2c /opt/altera/nios2eds/bin/gnu/H-i686-pc-linux-gnu/bin/../lib/gcc/nios2-elf/4.1.2/mno-hw-mul/libgcc.a(_gt_df.o)
 .debug_frame   0x00000e50       0x2c /opt/altera/nios2eds/bin/gnu/H-i686-pc-linux-gnu/bin/../lib/gcc/nios2-elf/4.1.2/mno-hw-mul/libgcc.a(_ge_df.o)
 .debug_frame   0x00000e7c       0x2c /opt/altera/nios2eds/bin/gnu/H-i686-pc-linux-gnu/bin/../lib/gcc/nios2-elf/4.1.2/mno-hw-mul/libgcc.a(_lt_df.o)
 .debug_frame   0x00000ea8       0x30 /opt/altera/nios2eds/bin/gnu/H-i686-pc-linux-gnu/bin/../lib/gcc/nios2-elf/4.1.2/mno-hw-mul/libgcc.a(_si_to_df.o)
 .debug_frame   0x00000ed8       0x28 /opt/altera/nios2eds/bin/gnu/H-i686-pc-linux-gnu/bin/../lib/gcc/nios2-elf/4.1.2/mno-hw-mul/libgcc.a(_df_to_si.o)
 .debug_frame   0x00000f00       0x38 /opt/altera/nios2eds/bin/gnu/H-i686-pc-linux-gnu/bin/../lib/gcc/nios2-elf/4.1.2/mno-hw-mul/libgcc.a(_usi_to_df.o)
 .debug_frame   0x00000f38       0x20 /opt/altera/nios2eds/bin/gnu/H-i686-pc-linux-gnu/bin/../lib/gcc/nios2-elf/4.1.2/mno-hw-mul/libgcc.a(lib2-mul.o)
 .debug_frame   0x00000f58       0x40 /opt/altera/nios2eds/bin/gnu/H-i686-pc-linux-gnu/bin/../lib/gcc/nios2-elf/4.1.2/mno-hw-mul/libgcc.a(_muldi3.o)
 .debug_frame   0x00000f98       0x20 /opt/altera/nios2eds/bin/gnu/H-i686-pc-linux-gnu/bin/../lib/gcc/nios2-elf/4.1.2/mno-hw-mul/libgcc.a(_clzsi2.o)
 .debug_frame   0x00000fb8       0x2c /opt/altera/nios2eds/bin/gnu/H-i686-pc-linux-gnu/bin/../lib/gcc/nios2-elf/4.1.2/mno-hw-mul/libgcc.a(_pack_df.o)
 .debug_frame   0x00000fe4       0x20 /opt/altera/nios2eds/bin/gnu/H-i686-pc-linux-gnu/bin/../lib/gcc/nios2-elf/4.1.2/mno-hw-mul/libgcc.a(_unpack_df.o)
 .debug_frame   0x00001004       0x20 /opt/altera/nios2eds/bin/gnu/H-i686-pc-linux-gnu/bin/../lib/gcc/nios2-elf/4.1.2/mno-hw-mul/libgcc.a(_fpcmp_parts_df.o)
 .debug_frame   0x00001024       0x48 ../de1_ucosii_tutorial_bsp//libucosii_bsp.a(alt_close.o)
 .debug_frame   0x0000106c       0x2c ../de1_ucosii_tutorial_bsp//libucosii_bsp.a(alt_dev.o)
 .debug_frame   0x00001098       0x48 ../de1_ucosii_tutorial_bsp//libucosii_bsp.a(alt_exit.o)
 .debug_frame   0x000010e0       0x48 ../de1_ucosii_tutorial_bsp//libucosii_bsp.a(alt_fstat.o)
 .debug_frame   0x00001128       0x48 ../de1_ucosii_tutorial_bsp//libucosii_bsp.a(alt_isatty.o)
 .debug_frame   0x00001170       0x48 ../de1_ucosii_tutorial_bsp//libucosii_bsp.a(alt_load.o)
 .debug_frame   0x000011b8       0x48 ../de1_ucosii_tutorial_bsp//libucosii_bsp.a(alt_lseek.o)
 .debug_frame   0x00001200       0x2c ../de1_ucosii_tutorial_bsp//libucosii_bsp.a(alt_main.o)
 .debug_frame   0x0000122c       0x48 ../de1_ucosii_tutorial_bsp//libucosii_bsp.a(alt_read.o)
 .debug_frame   0x00001274       0x30 ../de1_ucosii_tutorial_bsp//libucosii_bsp.a(alt_release_fd.o)
 .debug_frame   0x000012a4       0x2c ../de1_ucosii_tutorial_bsp//libucosii_bsp.a(alt_sbrk.o)
 .debug_frame   0x000012d0       0x48 ../de1_ucosii_tutorial_bsp//libucosii_bsp.a(alt_write.o)
 .debug_frame   0x00001318       0x4c ../de1_ucosii_tutorial_bsp//libucosii_bsp.a(alt_env_lock.o)
 .debug_frame   0x00001364       0x4c ../de1_ucosii_tutorial_bsp//libucosii_bsp.a(alt_malloc_lock.o)
 .debug_frame   0x000013b0      0x3e4 ../de1_ucosii_tutorial_bsp//libucosii_bsp.a(os_core.o)
 .debug_frame   0x00001794       0x2c ../de1_ucosii_tutorial_bsp//libucosii_bsp.a(os_dbg.o)
 .debug_frame   0x000017c0      0x180 ../de1_ucosii_tutorial_bsp//libucosii_bsp.a(os_flag.o)
 .debug_frame   0x00001940       0xd4 ../de1_ucosii_tutorial_bsp//libucosii_bsp.a(os_mem.o)
 .debug_frame   0x00001a14      0x144 ../de1_ucosii_tutorial_bsp//libucosii_bsp.a(os_q.o)
 .debug_frame   0x00001b58       0xf0 ../de1_ucosii_tutorial_bsp//libucosii_bsp.a(os_sem.o)
 .debug_frame   0x00001c48      0x160 ../de1_ucosii_tutorial_bsp//libucosii_bsp.a(os_task.o)
 .debug_frame   0x00001da8       0xa0 ../de1_ucosii_tutorial_bsp//libucosii_bsp.a(os_time.o)
 .debug_frame   0x00001e48       0x64 ../de1_ucosii_tutorial_bsp//libucosii_bsp.a(alt_sys_init.o)
 .debug_frame   0x00001eac       0x80 ../de1_ucosii_tutorial_bsp//libucosii_bsp.a(altera_avalon_jtag_uart_fd.o)
 .debug_frame   0x00001f2c       0x80 ../de1_ucosii_tutorial_bsp//libucosii_bsp.a(altera_avalon_jtag_uart_init.o)
 .debug_frame   0x00001fac       0x2c ../de1_ucosii_tutorial_bsp//libucosii_bsp.a(altera_avalon_jtag_uart_ioctl.o)
 .debug_frame   0x00001fd8       0x2c ../de1_ucosii_tutorial_bsp//libucosii_bsp.a(altera_avalon_jtag_uart_read.o)
 .debug_frame   0x00002004       0x2c ../de1_ucosii_tutorial_bsp//libucosii_bsp.a(altera_avalon_jtag_uart_write.o)
 .debug_frame   0x00002030       0x48 ../de1_ucosii_tutorial_bsp//libucosii_bsp.a(altera_avalon_timer_sc.o)
 .debug_frame   0x00002078       0x2c ../de1_ucosii_tutorial_bsp//libucosii_bsp.a(alt_alarm_start.o)
 .debug_frame   0x000020a4       0x2c ../de1_ucosii_tutorial_bsp//libucosii_bsp.a(alt_dcache_flush_all.o)
 .debug_frame   0x000020d0       0x48 ../de1_ucosii_tutorial_bsp//libucosii_bsp.a(alt_dev_llist_insert.o)
 .debug_frame   0x00002118       0x2c ../de1_ucosii_tutorial_bsp//libucosii_bsp.a(alt_do_ctors.o)
 .debug_frame   0x00002144       0x2c ../de1_ucosii_tutorial_bsp//libucosii_bsp.a(alt_do_dtors.o)
 .debug_frame   0x00002170       0x2c ../de1_ucosii_tutorial_bsp//libucosii_bsp.a(alt_icache_flush_all.o)
 .debug_frame   0x0000219c       0x80 ../de1_ucosii_tutorial_bsp//libucosii_bsp.a(alt_iic.o)
 .debug_frame   0x0000221c       0x2c ../de1_ucosii_tutorial_bsp//libucosii_bsp.a(alt_iic_isr_register.o)
 .debug_frame   0x00002248       0x4c ../de1_ucosii_tutorial_bsp//libucosii_bsp.a(alt_io_redirect.o)
 .debug_frame   0x00002294       0x2c ../de1_ucosii_tutorial_bsp//libucosii_bsp.a(alt_irq_handler.o)
 .debug_frame   0x000022c0       0x68 ../de1_ucosii_tutorial_bsp//libucosii_bsp.a(alt_open.o)
 .debug_frame   0x00002328       0x48 ../de1_ucosii_tutorial_bsp//libucosii_bsp.a(alt_tick.o)
 .debug_frame   0x00002370       0x2c ../de1_ucosii_tutorial_bsp//libucosii_bsp.a(altera_nios2_qsys_irq.o)
 .debug_frame   0x0000239c      0x128 ../de1_ucosii_tutorial_bsp//libucosii_bsp.a(os_cpu_c.o)
 .debug_frame   0x000024c4       0x2c ../de1_ucosii_tutorial_bsp//libucosii_bsp.a(alt_find_dev.o)
 .debug_frame   0x000024f0       0x2c ../de1_ucosii_tutorial_bsp//libucosii_bsp.a(alt_find_file.o)
 .debug_frame   0x0000251c       0x30 ../de1_ucosii_tutorial_bsp//libucosii_bsp.a(alt_get_fd.o)
 .debug_frame   0x0000254c       0x20 /opt/altera/nios2eds/bin/gnu/H-i686-pc-linux-gnu/bin/../lib/gcc/nios2-elf/4.1.2/../../../../nios2-elf/lib/mno-hw-mul/libc.a(lib_a-atexit.o)
 .debug_frame   0x0000256c       0x20 /opt/altera/nios2eds/bin/gnu/H-i686-pc-linux-gnu/bin/../lib/gcc/nios2-elf/4.1.2/../../../../nios2-elf/lib/mno-hw-mul/libc.a(lib_a-memcmp.o)
 .debug_frame   0x0000258c       0x34 /opt/altera/nios2eds/bin/gnu/H-i686-pc-linux-gnu/bin/../lib/gcc/nios2-elf/4.1.2/../../../../nios2-elf/lib/mno-hw-mul/libc.a(lib_a-__atexit.o)

.debug_str      0x00000000     0x2569
 *(.debug_str)
 .debug_str     0x00000000       0x2c obj/default/alt_ucosii_simple_error_check.o
 .debug_str     0x0000002c       0x4e obj/default/producer_consumer.o
 .debug_str     0x0000007a      0x169 /opt/altera/nios2eds/bin/gnu/H-i686-pc-linux-gnu/bin/../lib/gcc/nios2-elf/4.1.2/mno-hw-mul/libgcc.a(lib2-divmod.o)
                                0x1b6 (size before relaxing)
 .debug_str     0x000001e3      0x44e /opt/altera/nios2eds/bin/gnu/H-i686-pc-linux-gnu/bin/../lib/gcc/nios2-elf/4.1.2/../../../../nios2-elf/lib/mno-hw-mul/libc.a(lib_a-exit.o)
                                0x51c (size before relaxing)
 .debug_str     0x00000631       0xf8 /opt/altera/nios2eds/bin/gnu/H-i686-pc-linux-gnu/bin/../lib/gcc/nios2-elf/4.1.2/../../../../nios2-elf/lib/mno-hw-mul/libc.a(lib_a-fprintf.o)
                                0x52f (size before relaxing)
 .debug_str     0x00000729       0x8a /opt/altera/nios2eds/bin/gnu/H-i686-pc-linux-gnu/bin/../lib/gcc/nios2-elf/4.1.2/../../../../nios2-elf/lib/mno-hw-mul/libc.a(lib_a-fwrite.o)
                                0x56f (size before relaxing)
 .debug_str     0x000007b3       0xe1 /opt/altera/nios2eds/bin/gnu/H-i686-pc-linux-gnu/bin/../lib/gcc/nios2-elf/4.1.2/../../../../nios2-elf/lib/mno-hw-mul/libc.a(lib_a-impure.o)
                                0x52a (size before relaxing)
 .debug_str     0x00000894       0x47 /opt/altera/nios2eds/bin/gnu/H-i686-pc-linux-gnu/bin/../lib/gcc/nios2-elf/4.1.2/../../../../nios2-elf/lib/mno-hw-mul/libc.a(lib_a-printf.o)
                                0x533 (size before relaxing)
 .debug_str     0x000008db       0x48 /opt/altera/nios2eds/bin/gnu/H-i686-pc-linux-gnu/bin/../lib/gcc/nios2-elf/4.1.2/../../../../nios2-elf/lib/mno-hw-mul/libc.a(lib_a-puts.o)
                                0x559 (size before relaxing)
 .debug_str     0x00000923       0xeb /opt/altera/nios2eds/bin/gnu/H-i686-pc-linux-gnu/bin/../lib/gcc/nios2-elf/4.1.2/../../../../nios2-elf/lib/mno-hw-mul/libc.a(lib_a-strlen.o)
                                0x18d (size before relaxing)
 .debug_str     0x00000a0e      0x188 /opt/altera/nios2eds/bin/gnu/H-i686-pc-linux-gnu/bin/../lib/gcc/nios2-elf/4.1.2/../../../../nios2-elf/lib/mno-hw-mul/libc.a(lib_a-vfprintf.o)
                                0x708 (size before relaxing)
 .debug_str     0x00000b96       0x49 /opt/altera/nios2eds/bin/gnu/H-i686-pc-linux-gnu/bin/../lib/gcc/nios2-elf/4.1.2/../../../../nios2-elf/lib/mno-hw-mul/libc.a(lib_a-wsetup.o)
                                0x51c (size before relaxing)
 .debug_str     0x00000bdf       0x7e /opt/altera/nios2eds/bin/gnu/H-i686-pc-linux-gnu/bin/../lib/gcc/nios2-elf/4.1.2/../../../../nios2-elf/lib/mno-hw-mul/libc.a(lib_a-__call_atexit.o)
                                0x55e (size before relaxing)
 .debug_str     0x00000c5d      0x105 /opt/altera/nios2eds/bin/gnu/H-i686-pc-linux-gnu/bin/../lib/gcc/nios2-elf/4.1.2/../../../../nios2-elf/lib/mno-hw-mul/libc.a(lib_a-dtoa.o)
                                0x611 (size before relaxing)
 .debug_str     0x00000d62       0x55 /opt/altera/nios2eds/bin/gnu/H-i686-pc-linux-gnu/bin/../lib/gcc/nios2-elf/4.1.2/../../../../nios2-elf/lib/mno-hw-mul/libc.a(lib_a-fflush.o)
                                0x542 (size before relaxing)
 .debug_str     0x00000db7      0x105 /opt/altera/nios2eds/bin/gnu/H-i686-pc-linux-gnu/bin/../lib/gcc/nios2-elf/4.1.2/../../../../nios2-elf/lib/mno-hw-mul/libc.a(lib_a-findfp.o)
                                0x604 (size before relaxing)
 .debug_str     0x00000ebc      0x15e /opt/altera/nios2eds/bin/gnu/H-i686-pc-linux-gnu/bin/../lib/gcc/nios2-elf/4.1.2/../../../../nios2-elf/lib/mno-hw-mul/libc.a(lib_a-freer.o)
                                0x653 (size before relaxing)
 .debug_str     0x0000101a       0x69 /opt/altera/nios2eds/bin/gnu/H-i686-pc-linux-gnu/bin/../lib/gcc/nios2-elf/4.1.2/../../../../nios2-elf/lib/mno-hw-mul/libc.a(lib_a-fvwrite.o)
                                0x573 (size before relaxing)
 .debug_str     0x00001083       0x61 /opt/altera/nios2eds/bin/gnu/H-i686-pc-linux-gnu/bin/../lib/gcc/nios2-elf/4.1.2/../../../../nios2-elf/lib/mno-hw-mul/libc.a(lib_a-fwalk.o)
                                0x545 (size before relaxing)
 .debug_str     0x000010e4      0x235 /opt/altera/nios2eds/bin/gnu/H-i686-pc-linux-gnu/bin/../lib/gcc/nios2-elf/4.1.2/../../../../nios2-elf/lib/mno-hw-mul/libc.a(lib_a-locale.o)
                                0x6b9 (size before relaxing)
 .debug_str     0x00001319      0x126 /opt/altera/nios2eds/bin/gnu/H-i686-pc-linux-gnu/bin/../lib/gcc/nios2-elf/4.1.2/../../../../nios2-elf/lib/mno-hw-mul/libc.a(lib_a-makebuf.o)
                                0x616 (size before relaxing)
 .debug_str     0x0000143f       0xef /opt/altera/nios2eds/bin/gnu/H-i686-pc-linux-gnu/bin/../lib/gcc/nios2-elf/4.1.2/../../../../nios2-elf/lib/mno-hw-mul/libc.a(lib_a-mallocr.o)
                                0x701 (size before relaxing)
 .debug_str     0x0000152e       0x5f /opt/altera/nios2eds/bin/gnu/H-i686-pc-linux-gnu/bin/../lib/gcc/nios2-elf/4.1.2/../../../../nios2-elf/lib/mno-hw-mul/libc.a(lib_a-memchr.o)
                                0x19b (size before relaxing)
 .debug_str     0x0000158d       0x6c /opt/altera/nios2eds/bin/gnu/H-i686-pc-linux-gnu/bin/../lib/gcc/nios2-elf/4.1.2/../../../../nios2-elf/lib/mno-hw-mul/libc.a(lib_a-memcpy.o)
                                0x138 (size before relaxing)
 .debug_str     0x000015f9       0x50 /opt/altera/nios2eds/bin/gnu/H-i686-pc-linux-gnu/bin/../lib/gcc/nios2-elf/4.1.2/../../../../nios2-elf/lib/mno-hw-mul/libc.a(lib_a-memmove.o)
                                0x1ad (size before relaxing)
 .debug_str     0x00001649       0x45 /opt/altera/nios2eds/bin/gnu/H-i686-pc-linux-gnu/bin/../lib/gcc/nios2-elf/4.1.2/../../../../nios2-elf/lib/mno-hw-mul/libc.a(lib_a-memset.o)
                                0x18e (size before relaxing)
 .debug_str     0x0000168e       0xfb /opt/altera/nios2eds/bin/gnu/H-i686-pc-linux-gnu/bin/../lib/gcc/nios2-elf/4.1.2/../../../../nios2-elf/lib/mno-hw-mul/libc.a(lib_a-mprec.o)
                                0x61e (size before relaxing)
 .debug_str     0x00001789       0x59 /opt/altera/nios2eds/bin/gnu/H-i686-pc-linux-gnu/bin/../lib/gcc/nios2-elf/4.1.2/../../../../nios2-elf/lib/mno-hw-mul/libc.a(lib_a-reallocr.o)
                                0x5d3 (size before relaxing)
 .debug_str     0x000017e2       0xec /opt/altera/nios2eds/bin/gnu/H-i686-pc-linux-gnu/bin/../lib/gcc/nios2-elf/4.1.2/../../../../nios2-elf/lib/mno-hw-mul/libc.a(lib_a-s_isinfd.o)
                                0x19a (size before relaxing)
 .debug_str     0x000018ce       0x49 /opt/altera/nios2eds/bin/gnu/H-i686-pc-linux-gnu/bin/../lib/gcc/nios2-elf/4.1.2/../../../../nios2-elf/lib/mno-hw-mul/libc.a(lib_a-s_isnand.o)
                                0x19a (size before relaxing)
 .debug_str     0x00001917       0x53 /opt/altera/nios2eds/bin/gnu/H-i686-pc-linux-gnu/bin/../lib/gcc/nios2-elf/4.1.2/../../../../nios2-elf/lib/mno-hw-mul/libc.a(lib_a-sbrkr.o)
                                0x51b (size before relaxing)
 .debug_str     0x0000196a       0x65 /opt/altera/nios2eds/bin/gnu/H-i686-pc-linux-gnu/bin/../lib/gcc/nios2-elf/4.1.2/../../../../nios2-elf/lib/mno-hw-mul/libc.a(lib_a-stdio.o)
                                0x541 (size before relaxing)
 .debug_str     0x000019cf       0x45 /opt/altera/nios2eds/bin/gnu/H-i686-pc-linux-gnu/bin/../lib/gcc/nios2-elf/4.1.2/../../../../nios2-elf/lib/mno-hw-mul/libc.a(lib_a-strcmp.o)
                                0x173 (size before relaxing)
 .debug_str     0x00001a14       0x4f /opt/altera/nios2eds/bin/gnu/H-i686-pc-linux-gnu/bin/../lib/gcc/nios2-elf/4.1.2/../../../../nios2-elf/lib/mno-hw-mul/libc.a(lib_a-writer.o)
                                0x51e (size before relaxing)
 .debug_str     0x00001a63       0x19 /opt/altera/nios2eds/bin/gnu/H-i686-pc-linux-gnu/bin/../lib/gcc/nios2-elf/4.1.2/../../../../nios2-elf/lib/mno-hw-mul/libc.a(lib_a-callocr.o)
                                0x552 (size before relaxing)
 .debug_str     0x00001a7c       0x46 /opt/altera/nios2eds/bin/gnu/H-i686-pc-linux-gnu/bin/../lib/gcc/nios2-elf/4.1.2/../../../../nios2-elf/lib/mno-hw-mul/libc.a(lib_a-closer.o)
                                0x50e (size before relaxing)
 .debug_str     0x00001ac2       0x4e /opt/altera/nios2eds/bin/gnu/H-i686-pc-linux-gnu/bin/../lib/gcc/nios2-elf/4.1.2/../../../../nios2-elf/lib/mno-hw-mul/libc.a(lib_a-fclose.o)
                                0x526 (size before relaxing)
 .debug_str     0x00001b10       0x4c /opt/altera/nios2eds/bin/gnu/H-i686-pc-linux-gnu/bin/../lib/gcc/nios2-elf/4.1.2/../../../../nios2-elf/lib/mno-hw-mul/libc.a(lib_a-fstatr.o)
                                0x601 (size before relaxing)
 .debug_str     0x00001b5c       0x40 /opt/altera/nios2eds/bin/gnu/H-i686-pc-linux-gnu/bin/../lib/gcc/nios2-elf/4.1.2/../../../../nios2-elf/lib/mno-hw-mul/libc.a(lib_a-int_errno.o)
                                0x173 (size before relaxing)
 .debug_str     0x00001b9c       0x48 /opt/altera/nios2eds/bin/gnu/H-i686-pc-linux-gnu/bin/../lib/gcc/nios2-elf/4.1.2/../../../../nios2-elf/lib/mno-hw-mul/libc.a(lib_a-isattyr.o)
                                0x510 (size before relaxing)
 .debug_str     0x00001be4       0x46 /opt/altera/nios2eds/bin/gnu/H-i686-pc-linux-gnu/bin/../lib/gcc/nios2-elf/4.1.2/../../../../nios2-elf/lib/mno-hw-mul/libc.a(lib_a-lseekr.o)
                                0x51c (size before relaxing)
 .debug_str     0x00001c2a       0x44 /opt/altera/nios2eds/bin/gnu/H-i686-pc-linux-gnu/bin/../lib/gcc/nios2-elf/4.1.2/../../../../nios2-elf/lib/mno-hw-mul/libc.a(lib_a-readr.o)
                                0x51c (size before relaxing)
 .debug_str     0x00001c6e       0xb2 /opt/altera/nios2eds/bin/gnu/H-i686-pc-linux-gnu/bin/../lib/gcc/nios2-elf/4.1.2/mno-hw-mul/libgcc.a(_udivdi3.o)
                                0x1f9 (size before relaxing)
 .debug_str     0x00001d20        0xa /opt/altera/nios2eds/bin/gnu/H-i686-pc-linux-gnu/bin/../lib/gcc/nios2-elf/4.1.2/mno-hw-mul/libgcc.a(_umoddi3.o)
                                0x1f9 (size before relaxing)
 .debug_str     0x00001d2a      0x137 /opt/altera/nios2eds/bin/gnu/H-i686-pc-linux-gnu/bin/../lib/gcc/nios2-elf/4.1.2/mno-hw-mul/libgcc.a(_addsub_df.o)
                                0x271 (size before relaxing)
 .debug_str     0x00001e61       0x40 /opt/altera/nios2eds/bin/gnu/H-i686-pc-linux-gnu/bin/../lib/gcc/nios2-elf/4.1.2/mno-hw-mul/libgcc.a(_mul_df.o)
                                0x243 (size before relaxing)
 .debug_str     0x00001ea1       0x35 /opt/altera/nios2eds/bin/gnu/H-i686-pc-linux-gnu/bin/../lib/gcc/nios2-elf/4.1.2/mno-hw-mul/libgcc.a(_div_df.o)
                                0x233 (size before relaxing)
 .debug_str     0x00001ed6        0x8 /opt/altera/nios2eds/bin/gnu/H-i686-pc-linux-gnu/bin/../lib/gcc/nios2-elf/4.1.2/mno-hw-mul/libgcc.a(_eq_df.o)
                                0x200 (size before relaxing)
 .debug_str     0x00001ede        0x8 /opt/altera/nios2eds/bin/gnu/H-i686-pc-linux-gnu/bin/../lib/gcc/nios2-elf/4.1.2/mno-hw-mul/libgcc.a(_ne_df.o)
                                0x200 (size before relaxing)
 .debug_str     0x00001ee6        0x8 /opt/altera/nios2eds/bin/gnu/H-i686-pc-linux-gnu/bin/../lib/gcc/nios2-elf/4.1.2/mno-hw-mul/libgcc.a(_gt_df.o)
                                0x200 (size before relaxing)
 .debug_str     0x00001eee        0x8 /opt/altera/nios2eds/bin/gnu/H-i686-pc-linux-gnu/bin/../lib/gcc/nios2-elf/4.1.2/mno-hw-mul/libgcc.a(_ge_df.o)
                                0x200 (size before relaxing)
 .debug_str     0x00001ef6        0x8 /opt/altera/nios2eds/bin/gnu/H-i686-pc-linux-gnu/bin/../lib/gcc/nios2-elf/4.1.2/mno-hw-mul/libgcc.a(_lt_df.o)
                                0x200 (size before relaxing)
 .debug_str     0x00001efe       0x18 /opt/altera/nios2eds/bin/gnu/H-i686-pc-linux-gnu/bin/../lib/gcc/nios2-elf/4.1.2/mno-hw-mul/libgcc.a(_si_to_df.o)
                                0x1e0 (size before relaxing)
 .debug_str     0x00001f16        0xa /opt/altera/nios2eds/bin/gnu/H-i686-pc-linux-gnu/bin/../lib/gcc/nios2-elf/4.1.2/mno-hw-mul/libgcc.a(_df_to_si.o)
                                0x209 (size before relaxing)
 .debug_str     0x00000000      0x1a5 /opt/altera/nios2eds/bin/gnu/H-i686-pc-linux-gnu/bin/../lib/gcc/nios2-elf/4.1.2/mno-hw-mul/libgcc.a(_thenan_df.o)
 .debug_str     0x00001f20       0x14 /opt/altera/nios2eds/bin/gnu/H-i686-pc-linux-gnu/bin/../lib/gcc/nios2-elf/4.1.2/mno-hw-mul/libgcc.a(_usi_to_df.o)
                                0x1dc (size before relaxing)
 .debug_str     0x00001f34       0x37 /opt/altera/nios2eds/bin/gnu/H-i686-pc-linux-gnu/bin/../lib/gcc/nios2-elf/4.1.2/mno-hw-mul/libgcc.a(lib2-mul.o)
                                0x177 (size before relaxing)
 .debug_str     0x00001f6b        0x9 /opt/altera/nios2eds/bin/gnu/H-i686-pc-linux-gnu/bin/../lib/gcc/nios2-elf/4.1.2/mno-hw-mul/libgcc.a(_muldi3.o)
                                0x1ae (size before relaxing)
 .debug_str     0x00000000      0x163 /opt/altera/nios2eds/bin/gnu/H-i686-pc-linux-gnu/bin/../lib/gcc/nios2-elf/4.1.2/mno-hw-mul/libgcc.a(_clz.o)
 .debug_str     0x00001f74        0x9 /opt/altera/nios2eds/bin/gnu/H-i686-pc-linux-gnu/bin/../lib/gcc/nios2-elf/4.1.2/mno-hw-mul/libgcc.a(_clzsi2.o)
                                0x180 (size before relaxing)
 .debug_str     0x00001f7d       0x10 /opt/altera/nios2eds/bin/gnu/H-i686-pc-linux-gnu/bin/../lib/gcc/nios2-elf/4.1.2/mno-hw-mul/libgcc.a(_pack_df.o)
                                0x208 (size before relaxing)
 .debug_str     0x00001f8d        0xb /opt/altera/nios2eds/bin/gnu/H-i686-pc-linux-gnu/bin/../lib/gcc/nios2-elf/4.1.2/mno-hw-mul/libgcc.a(_unpack_df.o)
                                0x1ea (size before relaxing)
 .debug_str     0x00001f98       0x10 /opt/altera/nios2eds/bin/gnu/H-i686-pc-linux-gnu/bin/../lib/gcc/nios2-elf/4.1.2/mno-hw-mul/libgcc.a(_fpcmp_parts_df.o)
                                0x1c8 (size before relaxing)
 .debug_str     0x00001fa8       0x12 ../de1_ucosii_tutorial_bsp//libucosii_bsp.a(alt_close.o)
 .debug_str     0x00001fba       0x12 ../de1_ucosii_tutorial_bsp//libucosii_bsp.a(alt_dev.o)
 .debug_str     0x00001fcc       0x12 ../de1_ucosii_tutorial_bsp//libucosii_bsp.a(alt_errno.o)
 .debug_str     0x00001fde       0x1c ../de1_ucosii_tutorial_bsp//libucosii_bsp.a(alt_exit.o)
 .debug_str     0x00001ffa       0x12 ../de1_ucosii_tutorial_bsp//libucosii_bsp.a(alt_fstat.o)
 .debug_str     0x0000200c       0x12 ../de1_ucosii_tutorial_bsp//libucosii_bsp.a(alt_isatty.o)
 .debug_str     0x0000201e       0x12 ../de1_ucosii_tutorial_bsp//libucosii_bsp.a(alt_load.o)
 .debug_str     0x00002030       0x12 ../de1_ucosii_tutorial_bsp//libucosii_bsp.a(alt_lseek.o)
 .debug_str     0x00002042       0x12 ../de1_ucosii_tutorial_bsp//libucosii_bsp.a(alt_main.o)
 .debug_str     0x00002054       0x12 ../de1_ucosii_tutorial_bsp//libucosii_bsp.a(alt_read.o)
 .debug_str     0x00002066       0x12 ../de1_ucosii_tutorial_bsp//libucosii_bsp.a(alt_release_fd.o)
 .debug_str     0x00002078       0x1a ../de1_ucosii_tutorial_bsp//libucosii_bsp.a(alt_sbrk.o)
 .debug_str     0x00002092       0x12 ../de1_ucosii_tutorial_bsp//libucosii_bsp.a(alt_write.o)
 .debug_str     0x000020a4       0x36 ../de1_ucosii_tutorial_bsp//libucosii_bsp.a(alt_env_lock.o)
 .debug_str     0x000020da       0x36 ../de1_ucosii_tutorial_bsp//libucosii_bsp.a(alt_malloc_lock.o)
 .debug_str     0x00002110       0x46 ../de1_ucosii_tutorial_bsp//libucosii_bsp.a(os_core.o)
 .debug_str     0x00002156       0x2b ../de1_ucosii_tutorial_bsp//libucosii_bsp.a(os_dbg.o)
 .debug_str     0x00002181       0x4e ../de1_ucosii_tutorial_bsp//libucosii_bsp.a(os_flag.o)
 .debug_str     0x000021cf       0x2c ../de1_ucosii_tutorial_bsp//libucosii_bsp.a(os_mem.o)
 .debug_str     0x000021fb       0x36 ../de1_ucosii_tutorial_bsp//libucosii_bsp.a(os_q.o)
 .debug_str     0x00002231       0x36 ../de1_ucosii_tutorial_bsp//libucosii_bsp.a(os_sem.o)
 .debug_str     0x00002267       0x23 ../de1_ucosii_tutorial_bsp//libucosii_bsp.a(os_task.o)
 .debug_str     0x0000228a       0x1f ../de1_ucosii_tutorial_bsp//libucosii_bsp.a(os_time.o)
 .debug_str     0x000022a9       0x12 ../de1_ucosii_tutorial_bsp//libucosii_bsp.a(alt_sys_init.o)
 .debug_str     0x000022bb       0x12 ../de1_ucosii_tutorial_bsp//libucosii_bsp.a(altera_avalon_jtag_uart_fd.o)
 .debug_str     0x000022cd       0x1a ../de1_ucosii_tutorial_bsp//libucosii_bsp.a(altera_avalon_jtag_uart_init.o)
 .debug_str     0x000022e7       0x12 ../de1_ucosii_tutorial_bsp//libucosii_bsp.a(altera_avalon_jtag_uart_ioctl.o)
 .debug_str     0x000022f9       0x22 ../de1_ucosii_tutorial_bsp//libucosii_bsp.a(altera_avalon_jtag_uart_read.o)
 .debug_str     0x0000231b       0x22 ../de1_ucosii_tutorial_bsp//libucosii_bsp.a(altera_avalon_jtag_uart_write.o)
 .debug_str     0x0000233d       0x12 ../de1_ucosii_tutorial_bsp//libucosii_bsp.a(altera_avalon_timer_sc.o)
 .debug_str     0x0000234f       0x23 ../de1_ucosii_tutorial_bsp//libucosii_bsp.a(alt_alarm_start.o)
 .debug_str     0x00002372       0x12 ../de1_ucosii_tutorial_bsp//libucosii_bsp.a(alt_dcache_flush_all.o)
 .debug_str     0x00002384       0x12 ../de1_ucosii_tutorial_bsp//libucosii_bsp.a(alt_dev_llist_insert.o)
 .debug_str     0x00002396       0x12 ../de1_ucosii_tutorial_bsp//libucosii_bsp.a(alt_icache_flush_all.o)
 .debug_str     0x000023a8       0x18 ../de1_ucosii_tutorial_bsp//libucosii_bsp.a(alt_iic.o)
 .debug_str     0x000023c0       0x1a ../de1_ucosii_tutorial_bsp//libucosii_bsp.a(alt_iic_isr_register.o)
 .debug_str     0x000023da       0x12 ../de1_ucosii_tutorial_bsp//libucosii_bsp.a(alt_io_redirect.o)
 .debug_str     0x000023ec       0x12 ../de1_ucosii_tutorial_bsp//libucosii_bsp.a(alt_irq_handler.o)
 .debug_str     0x000023fe       0x12 ../de1_ucosii_tutorial_bsp//libucosii_bsp.a(alt_open.o)
 .debug_str     0x00002410       0x1a ../de1_ucosii_tutorial_bsp//libucosii_bsp.a(alt_tick.o)
 .debug_str     0x0000242a       0x12 ../de1_ucosii_tutorial_bsp//libucosii_bsp.a(altera_nios2_qsys_irq.o)
 .debug_str     0x0000243c       0x20 ../de1_ucosii_tutorial_bsp//libucosii_bsp.a(os_cpu_c.o)
 .debug_str     0x0000245c       0x12 ../de1_ucosii_tutorial_bsp//libucosii_bsp.a(alt_find_dev.o)
 .debug_str     0x0000246e       0x12 ../de1_ucosii_tutorial_bsp//libucosii_bsp.a(alt_find_file.o)
 .debug_str     0x00002480       0x12 ../de1_ucosii_tutorial_bsp//libucosii_bsp.a(alt_get_fd.o)
 .debug_str     0x00002492       0x3e /opt/altera/nios2eds/bin/gnu/H-i686-pc-linux-gnu/bin/../lib/gcc/nios2-elf/4.1.2/../../../../nios2-elf/lib/mno-hw-mul/libc.a(lib_a-atexit.o)
                                0x1cf (size before relaxing)
 .debug_str     0x000024d0       0x45 /opt/altera/nios2eds/bin/gnu/H-i686-pc-linux-gnu/bin/../lib/gcc/nios2-elf/4.1.2/../../../../nios2-elf/lib/mno-hw-mul/libc.a(lib_a-memcmp.o)
                                0x17a (size before relaxing)
 .debug_str     0x00002515       0x54 /opt/altera/nios2eds/bin/gnu/H-i686-pc-linux-gnu/bin/../lib/gcc/nios2-elf/4.1.2/../../../../nios2-elf/lib/mno-hw-mul/libc.a(lib_a-__atexit.o)
                                0x534 (size before relaxing)

.debug_loc      0x00000000     0xd2d7
 *(.debug_loc)
 .debug_loc     0x00000000       0x56 obj/default/alt_ucosii_simple_error_check.o
 .debug_loc     0x00000056      0x12d obj/default/producer_consumer.o
 .debug_loc     0x00000183      0x1d2 /opt/altera/nios2eds/bin/gnu/H-i686-pc-linux-gnu/bin/../lib/gcc/nios2-elf/4.1.2/mno-hw-mul/libgcc.a(lib2-divmod.o)
 .debug_loc     0x00000355       0x3d /opt/altera/nios2eds/bin/gnu/H-i686-pc-linux-gnu/bin/../lib/gcc/nios2-elf/4.1.2/../../../../nios2-elf/lib/mno-hw-mul/libc.a(lib_a-exit.o)
 .debug_loc     0x00000392       0xf1 /opt/altera/nios2eds/bin/gnu/H-i686-pc-linux-gnu/bin/../lib/gcc/nios2-elf/4.1.2/../../../../nios2-elf/lib/mno-hw-mul/libc.a(lib_a-fprintf.o)
 .debug_loc     0x00000483      0x183 /opt/altera/nios2eds/bin/gnu/H-i686-pc-linux-gnu/bin/../lib/gcc/nios2-elf/4.1.2/../../../../nios2-elf/lib/mno-hw-mul/libc.a(lib_a-fwrite.o)
 .debug_loc     0x00000606       0xcb /opt/altera/nios2eds/bin/gnu/H-i686-pc-linux-gnu/bin/../lib/gcc/nios2-elf/4.1.2/../../../../nios2-elf/lib/mno-hw-mul/libc.a(lib_a-printf.o)
 .debug_loc     0x000006d1       0xa2 /opt/altera/nios2eds/bin/gnu/H-i686-pc-linux-gnu/bin/../lib/gcc/nios2-elf/4.1.2/../../../../nios2-elf/lib/mno-hw-mul/libc.a(lib_a-puts.o)
 .debug_loc     0x00000773       0x3c /opt/altera/nios2eds/bin/gnu/H-i686-pc-linux-gnu/bin/../lib/gcc/nios2-elf/4.1.2/../../../../nios2-elf/lib/mno-hw-mul/libc.a(lib_a-strlen.o)
 .debug_loc     0x000007af     0x1dc0 /opt/altera/nios2eds/bin/gnu/H-i686-pc-linux-gnu/bin/../lib/gcc/nios2-elf/4.1.2/../../../../nios2-elf/lib/mno-hw-mul/libc.a(lib_a-vfprintf.o)
 .debug_loc     0x0000256f       0x7c /opt/altera/nios2eds/bin/gnu/H-i686-pc-linux-gnu/bin/../lib/gcc/nios2-elf/4.1.2/../../../../nios2-elf/lib/mno-hw-mul/libc.a(lib_a-wsetup.o)
 .debug_loc     0x000025eb      0x1cb /opt/altera/nios2eds/bin/gnu/H-i686-pc-linux-gnu/bin/../lib/gcc/nios2-elf/4.1.2/../../../../nios2-elf/lib/mno-hw-mul/libc.a(lib_a-__call_atexit.o)
 .debug_loc     0x000027b6     0x1da7 /opt/altera/nios2eds/bin/gnu/H-i686-pc-linux-gnu/bin/../lib/gcc/nios2-elf/4.1.2/../../../../nios2-elf/lib/mno-hw-mul/libc.a(lib_a-dtoa.o)
 .debug_loc     0x0000455d      0x1f6 /opt/altera/nios2eds/bin/gnu/H-i686-pc-linux-gnu/bin/../lib/gcc/nios2-elf/4.1.2/../../../../nios2-elf/lib/mno-hw-mul/libc.a(lib_a-fflush.o)
 .debug_loc     0x00004753      0x1e1 /opt/altera/nios2eds/bin/gnu/H-i686-pc-linux-gnu/bin/../lib/gcc/nios2-elf/4.1.2/../../../../nios2-elf/lib/mno-hw-mul/libc.a(lib_a-findfp.o)
 .debug_loc     0x00004934      0x4a7 /opt/altera/nios2eds/bin/gnu/H-i686-pc-linux-gnu/bin/../lib/gcc/nios2-elf/4.1.2/../../../../nios2-elf/lib/mno-hw-mul/libc.a(lib_a-freer.o)
 .debug_loc     0x00004ddb      0x4e4 /opt/altera/nios2eds/bin/gnu/H-i686-pc-linux-gnu/bin/../lib/gcc/nios2-elf/4.1.2/../../../../nios2-elf/lib/mno-hw-mul/libc.a(lib_a-fvwrite.o)
 .debug_loc     0x000052bf      0x1d2 /opt/altera/nios2eds/bin/gnu/H-i686-pc-linux-gnu/bin/../lib/gcc/nios2-elf/4.1.2/../../../../nios2-elf/lib/mno-hw-mul/libc.a(lib_a-fwalk.o)
 .debug_loc     0x00005491       0xe1 /opt/altera/nios2eds/bin/gnu/H-i686-pc-linux-gnu/bin/../lib/gcc/nios2-elf/4.1.2/../../../../nios2-elf/lib/mno-hw-mul/libc.a(lib_a-locale.o)
 .debug_loc     0x00005572      0x11c /opt/altera/nios2eds/bin/gnu/H-i686-pc-linux-gnu/bin/../lib/gcc/nios2-elf/4.1.2/../../../../nios2-elf/lib/mno-hw-mul/libc.a(lib_a-makebuf.o)
 .debug_loc     0x0000568e      0xaeb /opt/altera/nios2eds/bin/gnu/H-i686-pc-linux-gnu/bin/../lib/gcc/nios2-elf/4.1.2/../../../../nios2-elf/lib/mno-hw-mul/libc.a(lib_a-mallocr.o)
 .debug_loc     0x00006179      0x106 /opt/altera/nios2eds/bin/gnu/H-i686-pc-linux-gnu/bin/../lib/gcc/nios2-elf/4.1.2/../../../../nios2-elf/lib/mno-hw-mul/libc.a(lib_a-memchr.o)
 .debug_loc     0x0000627f       0xca /opt/altera/nios2eds/bin/gnu/H-i686-pc-linux-gnu/bin/../lib/gcc/nios2-elf/4.1.2/../../../../nios2-elf/lib/mno-hw-mul/libc.a(lib_a-memcpy.o)
 .debug_loc     0x00006349      0x117 /opt/altera/nios2eds/bin/gnu/H-i686-pc-linux-gnu/bin/../lib/gcc/nios2-elf/4.1.2/../../../../nios2-elf/lib/mno-hw-mul/libc.a(lib_a-memmove.o)
 .debug_loc     0x00006460       0xa1 /opt/altera/nios2eds/bin/gnu/H-i686-pc-linux-gnu/bin/../lib/gcc/nios2-elf/4.1.2/../../../../nios2-elf/lib/mno-hw-mul/libc.a(lib_a-memset.o)
 .debug_loc     0x00006501     0x1547 /opt/altera/nios2eds/bin/gnu/H-i686-pc-linux-gnu/bin/../lib/gcc/nios2-elf/4.1.2/../../../../nios2-elf/lib/mno-hw-mul/libc.a(lib_a-mprec.o)
 .debug_loc     0x00007a48      0x8c0 /opt/altera/nios2eds/bin/gnu/H-i686-pc-linux-gnu/bin/../lib/gcc/nios2-elf/4.1.2/../../../../nios2-elf/lib/mno-hw-mul/libc.a(lib_a-reallocr.o)
 .debug_loc     0x00008308       0x36 /opt/altera/nios2eds/bin/gnu/H-i686-pc-linux-gnu/bin/../lib/gcc/nios2-elf/4.1.2/../../../../nios2-elf/lib/mno-hw-mul/libc.a(lib_a-s_isinfd.o)
 .debug_loc     0x0000833e       0x18 /opt/altera/nios2eds/bin/gnu/H-i686-pc-linux-gnu/bin/../lib/gcc/nios2-elf/4.1.2/../../../../nios2-elf/lib/mno-hw-mul/libc.a(lib_a-s_isnand.o)
 .debug_loc     0x00008356       0x5b /opt/altera/nios2eds/bin/gnu/H-i686-pc-linux-gnu/bin/../lib/gcc/nios2-elf/4.1.2/../../../../nios2-elf/lib/mno-hw-mul/libc.a(lib_a-sbrkr.o)
 .debug_loc     0x000083b1      0x21f /opt/altera/nios2eds/bin/gnu/H-i686-pc-linux-gnu/bin/../lib/gcc/nios2-elf/4.1.2/../../../../nios2-elf/lib/mno-hw-mul/libc.a(lib_a-stdio.o)
 .debug_loc     0x000085d0       0x65 /opt/altera/nios2eds/bin/gnu/H-i686-pc-linux-gnu/bin/../lib/gcc/nios2-elf/4.1.2/../../../../nios2-elf/lib/mno-hw-mul/libc.a(lib_a-strcmp.o)
 .debug_loc     0x00008635       0x97 /opt/altera/nios2eds/bin/gnu/H-i686-pc-linux-gnu/bin/../lib/gcc/nios2-elf/4.1.2/../../../../nios2-elf/lib/mno-hw-mul/libc.a(lib_a-writer.o)
 .debug_loc     0x000086cc       0xff /opt/altera/nios2eds/bin/gnu/H-i686-pc-linux-gnu/bin/../lib/gcc/nios2-elf/4.1.2/../../../../nios2-elf/lib/mno-hw-mul/libc.a(lib_a-callocr.o)
 .debug_loc     0x000087cb       0x5b /opt/altera/nios2eds/bin/gnu/H-i686-pc-linux-gnu/bin/../lib/gcc/nios2-elf/4.1.2/../../../../nios2-elf/lib/mno-hw-mul/libc.a(lib_a-closer.o)
 .debug_loc     0x00008826       0xe4 /opt/altera/nios2eds/bin/gnu/H-i686-pc-linux-gnu/bin/../lib/gcc/nios2-elf/4.1.2/../../../../nios2-elf/lib/mno-hw-mul/libc.a(lib_a-fclose.o)
 .debug_loc     0x0000890a       0x79 /opt/altera/nios2eds/bin/gnu/H-i686-pc-linux-gnu/bin/../lib/gcc/nios2-elf/4.1.2/../../../../nios2-elf/lib/mno-hw-mul/libc.a(lib_a-fstatr.o)
 .debug_loc     0x00008983       0x5b /opt/altera/nios2eds/bin/gnu/H-i686-pc-linux-gnu/bin/../lib/gcc/nios2-elf/4.1.2/../../../../nios2-elf/lib/mno-hw-mul/libc.a(lib_a-isattyr.o)
 .debug_loc     0x000089de       0x97 /opt/altera/nios2eds/bin/gnu/H-i686-pc-linux-gnu/bin/../lib/gcc/nios2-elf/4.1.2/../../../../nios2-elf/lib/mno-hw-mul/libc.a(lib_a-lseekr.o)
 .debug_loc     0x00008a75       0x97 /opt/altera/nios2eds/bin/gnu/H-i686-pc-linux-gnu/bin/../lib/gcc/nios2-elf/4.1.2/../../../../nios2-elf/lib/mno-hw-mul/libc.a(lib_a-readr.o)
 .debug_loc     0x00008b0c      0xc12 /opt/altera/nios2eds/bin/gnu/H-i686-pc-linux-gnu/bin/../lib/gcc/nios2-elf/4.1.2/mno-hw-mul/libgcc.a(_udivdi3.o)
 .debug_loc     0x0000971e      0xbe2 /opt/altera/nios2eds/bin/gnu/H-i686-pc-linux-gnu/bin/../lib/gcc/nios2-elf/4.1.2/mno-hw-mul/libgcc.a(_umoddi3.o)
 .debug_loc     0x0000a300      0x47a /opt/altera/nios2eds/bin/gnu/H-i686-pc-linux-gnu/bin/../lib/gcc/nios2-elf/4.1.2/mno-hw-mul/libgcc.a(_addsub_df.o)
 .debug_loc     0x0000a77a      0x3b4 /opt/altera/nios2eds/bin/gnu/H-i686-pc-linux-gnu/bin/../lib/gcc/nios2-elf/4.1.2/mno-hw-mul/libgcc.a(_mul_df.o)
 .debug_loc     0x0000ab2e      0x1df /opt/altera/nios2eds/bin/gnu/H-i686-pc-linux-gnu/bin/../lib/gcc/nios2-elf/4.1.2/mno-hw-mul/libgcc.a(_div_df.o)
 .debug_loc     0x0000ad0d       0x70 /opt/altera/nios2eds/bin/gnu/H-i686-pc-linux-gnu/bin/../lib/gcc/nios2-elf/4.1.2/mno-hw-mul/libgcc.a(_eq_df.o)
 .debug_loc     0x0000ad7d       0x70 /opt/altera/nios2eds/bin/gnu/H-i686-pc-linux-gnu/bin/../lib/gcc/nios2-elf/4.1.2/mno-hw-mul/libgcc.a(_ne_df.o)
 .debug_loc     0x0000aded       0x70 /opt/altera/nios2eds/bin/gnu/H-i686-pc-linux-gnu/bin/../lib/gcc/nios2-elf/4.1.2/mno-hw-mul/libgcc.a(_gt_df.o)
 .debug_loc     0x0000ae5d       0x70 /opt/altera/nios2eds/bin/gnu/H-i686-pc-linux-gnu/bin/../lib/gcc/nios2-elf/4.1.2/mno-hw-mul/libgcc.a(_ge_df.o)
 .debug_loc     0x0000aecd       0x70 /opt/altera/nios2eds/bin/gnu/H-i686-pc-linux-gnu/bin/../lib/gcc/nios2-elf/4.1.2/mno-hw-mul/libgcc.a(_lt_df.o)
 .debug_loc     0x0000af3d       0x9a /opt/altera/nios2eds/bin/gnu/H-i686-pc-linux-gnu/bin/../lib/gcc/nios2-elf/4.1.2/mno-hw-mul/libgcc.a(_si_to_df.o)
 .debug_loc     0x0000afd7       0x8b /opt/altera/nios2eds/bin/gnu/H-i686-pc-linux-gnu/bin/../lib/gcc/nios2-elf/4.1.2/mno-hw-mul/libgcc.a(_df_to_si.o)
 .debug_loc     0x0000b062       0x5b /opt/altera/nios2eds/bin/gnu/H-i686-pc-linux-gnu/bin/../lib/gcc/nios2-elf/4.1.2/mno-hw-mul/libgcc.a(_usi_to_df.o)
 .debug_loc     0x0000b0bd       0x4f /opt/altera/nios2eds/bin/gnu/H-i686-pc-linux-gnu/bin/../lib/gcc/nios2-elf/4.1.2/mno-hw-mul/libgcc.a(lib2-mul.o)
 .debug_loc     0x0000b10c      0x103 /opt/altera/nios2eds/bin/gnu/H-i686-pc-linux-gnu/bin/../lib/gcc/nios2-elf/4.1.2/mno-hw-mul/libgcc.a(_muldi3.o)
 .debug_loc     0x0000b20f       0x1e /opt/altera/nios2eds/bin/gnu/H-i686-pc-linux-gnu/bin/../lib/gcc/nios2-elf/4.1.2/mno-hw-mul/libgcc.a(_clzsi2.o)
 .debug_loc     0x0000b22d      0x184 /opt/altera/nios2eds/bin/gnu/H-i686-pc-linux-gnu/bin/../lib/gcc/nios2-elf/4.1.2/mno-hw-mul/libgcc.a(_pack_df.o)
 .debug_loc     0x0000b3b1       0xe5 /opt/altera/nios2eds/bin/gnu/H-i686-pc-linux-gnu/bin/../lib/gcc/nios2-elf/4.1.2/mno-hw-mul/libgcc.a(_unpack_df.o)
 .debug_loc     0x0000b496       0x56 ../de1_ucosii_tutorial_bsp//libucosii_bsp.a(alt_close.o)
 .debug_loc     0x0000b4ec       0x2b ../de1_ucosii_tutorial_bsp//libucosii_bsp.a(alt_dev.o)
 .debug_loc     0x0000b517       0x56 ../de1_ucosii_tutorial_bsp//libucosii_bsp.a(alt_exit.o)
 .debug_loc     0x0000b56d       0x56 ../de1_ucosii_tutorial_bsp//libucosii_bsp.a(alt_fstat.o)
 .debug_loc     0x0000b5c3       0x57 ../de1_ucosii_tutorial_bsp//libucosii_bsp.a(alt_isatty.o)
 .debug_loc     0x0000b61a       0x56 ../de1_ucosii_tutorial_bsp//libucosii_bsp.a(alt_load.o)
 .debug_loc     0x0000b670       0x56 ../de1_ucosii_tutorial_bsp//libucosii_bsp.a(alt_lseek.o)
 .debug_loc     0x0000b6c6       0x2b ../de1_ucosii_tutorial_bsp//libucosii_bsp.a(alt_main.o)
 .debug_loc     0x0000b6f1       0x56 ../de1_ucosii_tutorial_bsp//libucosii_bsp.a(alt_read.o)
 .debug_loc     0x0000b747       0x2b ../de1_ucosii_tutorial_bsp//libucosii_bsp.a(alt_release_fd.o)
 .debug_loc     0x0000b772       0x2b ../de1_ucosii_tutorial_bsp//libucosii_bsp.a(alt_sbrk.o)
 .debug_loc     0x0000b79d       0x56 ../de1_ucosii_tutorial_bsp//libucosii_bsp.a(alt_write.o)
 .debug_loc     0x0000b7f3       0x57 ../de1_ucosii_tutorial_bsp//libucosii_bsp.a(alt_env_lock.o)
 .debug_loc     0x0000b84a       0x57 ../de1_ucosii_tutorial_bsp//libucosii_bsp.a(alt_malloc_lock.o)
 .debug_loc     0x0000b8a1      0x5e2 ../de1_ucosii_tutorial_bsp//libucosii_bsp.a(os_core.o)
 .debug_loc     0x0000be83       0x2b ../de1_ucosii_tutorial_bsp//libucosii_bsp.a(os_dbg.o)
 .debug_loc     0x0000beae      0x232 ../de1_ucosii_tutorial_bsp//libucosii_bsp.a(os_flag.o)
 .debug_loc     0x0000c0e0      0x12d ../de1_ucosii_tutorial_bsp//libucosii_bsp.a(os_mem.o)
 .debug_loc     0x0000c20d      0x1da ../de1_ucosii_tutorial_bsp//libucosii_bsp.a(os_q.o)
 .debug_loc     0x0000c3e7      0x158 ../de1_ucosii_tutorial_bsp//libucosii_bsp.a(os_sem.o)
 .debug_loc     0x0000c53f      0x207 ../de1_ucosii_tutorial_bsp//libucosii_bsp.a(os_task.o)
 .debug_loc     0x0000c746       0xd7 ../de1_ucosii_tutorial_bsp//libucosii_bsp.a(os_time.o)
 .debug_loc     0x0000c81d       0x81 ../de1_ucosii_tutorial_bsp//libucosii_bsp.a(alt_sys_init.o)
 .debug_loc     0x0000c89e       0xac ../de1_ucosii_tutorial_bsp//libucosii_bsp.a(altera_avalon_jtag_uart_fd.o)
 .debug_loc     0x0000c94a       0xac ../de1_ucosii_tutorial_bsp//libucosii_bsp.a(altera_avalon_jtag_uart_init.o)
 .debug_loc     0x0000c9f6       0x2b ../de1_ucosii_tutorial_bsp//libucosii_bsp.a(altera_avalon_jtag_uart_ioctl.o)
 .debug_loc     0x0000ca21       0x2c ../de1_ucosii_tutorial_bsp//libucosii_bsp.a(altera_avalon_jtag_uart_read.o)
 .debug_loc     0x0000ca4d       0x2c ../de1_ucosii_tutorial_bsp//libucosii_bsp.a(altera_avalon_jtag_uart_write.o)
 .debug_loc     0x0000ca79       0x56 ../de1_ucosii_tutorial_bsp//libucosii_bsp.a(altera_avalon_timer_sc.o)
 .debug_loc     0x0000cacf       0x2b ../de1_ucosii_tutorial_bsp//libucosii_bsp.a(alt_alarm_start.o)
 .debug_loc     0x0000cafa       0x2b ../de1_ucosii_tutorial_bsp//libucosii_bsp.a(alt_dcache_flush_all.o)
 .debug_loc     0x0000cb25       0x56 ../de1_ucosii_tutorial_bsp//libucosii_bsp.a(alt_dev_llist_insert.o)
 .debug_loc     0x0000cb7b       0x2b ../de1_ucosii_tutorial_bsp//libucosii_bsp.a(alt_do_ctors.o)
 .debug_loc     0x0000cba6       0x2b ../de1_ucosii_tutorial_bsp//libucosii_bsp.a(alt_do_dtors.o)
 .debug_loc     0x0000cbd1       0x2b ../de1_ucosii_tutorial_bsp//libucosii_bsp.a(alt_icache_flush_all.o)
 .debug_loc     0x0000cbfc       0xac ../de1_ucosii_tutorial_bsp//libucosii_bsp.a(alt_iic.o)
 .debug_loc     0x0000cca8       0x2b ../de1_ucosii_tutorial_bsp//libucosii_bsp.a(alt_iic_isr_register.o)
 .debug_loc     0x0000ccd3       0x56 ../de1_ucosii_tutorial_bsp//libucosii_bsp.a(alt_io_redirect.o)
 .debug_loc     0x0000cd29       0x2b ../de1_ucosii_tutorial_bsp//libucosii_bsp.a(alt_irq_handler.o)
 .debug_loc     0x0000cd54       0x81 ../de1_ucosii_tutorial_bsp//libucosii_bsp.a(alt_open.o)
 .debug_loc     0x0000cdd5       0x56 ../de1_ucosii_tutorial_bsp//libucosii_bsp.a(alt_tick.o)
 .debug_loc     0x0000ce2b       0x2b ../de1_ucosii_tutorial_bsp//libucosii_bsp.a(altera_nios2_qsys_irq.o)
 .debug_loc     0x0000ce56      0x1ae ../de1_ucosii_tutorial_bsp//libucosii_bsp.a(os_cpu_c.o)
 .debug_loc     0x0000d004       0x2b ../de1_ucosii_tutorial_bsp//libucosii_bsp.a(alt_find_dev.o)
 .debug_loc     0x0000d02f       0x2b ../de1_ucosii_tutorial_bsp//libucosii_bsp.a(alt_find_file.o)
 .debug_loc     0x0000d05a       0x2b ../de1_ucosii_tutorial_bsp//libucosii_bsp.a(alt_get_fd.o)
 .debug_loc     0x0000d085       0x1e /opt/altera/nios2eds/bin/gnu/H-i686-pc-linux-gnu/bin/../lib/gcc/nios2-elf/4.1.2/../../../../nios2-elf/lib/mno-hw-mul/libc.a(lib_a-atexit.o)
 .debug_loc     0x0000d0a3      0x114 /opt/altera/nios2eds/bin/gnu/H-i686-pc-linux-gnu/bin/../lib/gcc/nios2-elf/4.1.2/../../../../nios2-elf/lib/mno-hw-mul/libc.a(lib_a-memcmp.o)
 .debug_loc     0x0000d1b7      0x120 /opt/altera/nios2eds/bin/gnu/H-i686-pc-linux-gnu/bin/../lib/gcc/nios2-elf/4.1.2/../../../../nios2-elf/lib/mno-hw-mul/libc.a(lib_a-__atexit.o)

.debug_macinfo
 *(.debug_macinfo)

.debug_weaknames
 *(.debug_weaknames)

.debug_funcnames
 *(.debug_funcnames)

.debug_typenames
 *(.debug_typenames)

.debug_varnames
 *(.debug_varnames)

.debug_alt_sim_info
                0x00000000       0x10
 *(.debug_alt_sim_info)
 .debug_alt_sim_info
                0x00000000       0x10 ../de1_ucosii_tutorial_bsp//obj/HAL/src/crt0.o
                0x01000000                __alt_data_end = 0x1000000
                0x01000000                PROVIDE (__alt_stack_pointer, __alt_data_end)
                0x00821ab4                PROVIDE (__alt_stack_limit, __alt_stack_base)
                0x00821ab4                PROVIDE (__alt_heap_start, end)
                0x01000000                PROVIDE (__alt_heap_limit, 0x1000000)
OUTPUT(de1_ucosii_tutorial.elf elf32-littlenios2)

.debug_ranges   0x00000000      0x9f8
 .debug_ranges  0x00000000       0x20 ../de1_ucosii_tutorial_bsp//obj/HAL/src/crt0.o
 .debug_ranges  0x00000020      0x168 /opt/altera/nios2eds/bin/gnu/H-i686-pc-linux-gnu/bin/../lib/gcc/nios2-elf/4.1.2/../../../../nios2-elf/lib/mno-hw-mul/libc.a(lib_a-vfprintf.o)
 .debug_ranges  0x00000188       0x18 /opt/altera/nios2eds/bin/gnu/H-i686-pc-linux-gnu/bin/../lib/gcc/nios2-elf/4.1.2/../../../../nios2-elf/lib/mno-hw-mul/libc.a(lib_a-__call_atexit.o)
 .debug_ranges  0x000001a0       0x20 /opt/altera/nios2eds/bin/gnu/H-i686-pc-linux-gnu/bin/../lib/gcc/nios2-elf/4.1.2/../../../../nios2-elf/lib/mno-hw-mul/libc.a(lib_a-fflush.o)
 .debug_ranges  0x000001c0       0x28 /opt/altera/nios2eds/bin/gnu/H-i686-pc-linux-gnu/bin/../lib/gcc/nios2-elf/4.1.2/../../../../nios2-elf/lib/mno-hw-mul/libc.a(lib_a-fvwrite.o)
 .debug_ranges  0x000001e8       0xa0 /opt/altera/nios2eds/bin/gnu/H-i686-pc-linux-gnu/bin/../lib/gcc/nios2-elf/4.1.2/../../../../nios2-elf/lib/mno-hw-mul/libc.a(lib_a-fwalk.o)
 .debug_ranges  0x00000288       0x70 /opt/altera/nios2eds/bin/gnu/H-i686-pc-linux-gnu/bin/../lib/gcc/nios2-elf/4.1.2/../../../../nios2-elf/lib/mno-hw-mul/libc.a(lib_a-mallocr.o)
 .debug_ranges  0x000002f8      0x110 /opt/altera/nios2eds/bin/gnu/H-i686-pc-linux-gnu/bin/../lib/gcc/nios2-elf/4.1.2/../../../../nios2-elf/lib/mno-hw-mul/libc.a(lib_a-reallocr.o)
 .debug_ranges  0x00000408       0x38 /opt/altera/nios2eds/bin/gnu/H-i686-pc-linux-gnu/bin/../lib/gcc/nios2-elf/4.1.2/../../../../nios2-elf/lib/mno-hw-mul/libc.a(lib_a-callocr.o)
 .debug_ranges  0x00000440      0x190 /opt/altera/nios2eds/bin/gnu/H-i686-pc-linux-gnu/bin/../lib/gcc/nios2-elf/4.1.2/mno-hw-mul/libgcc.a(_udivdi3.o)
 .debug_ranges  0x000005d0      0x1c0 /opt/altera/nios2eds/bin/gnu/H-i686-pc-linux-gnu/bin/../lib/gcc/nios2-elf/4.1.2/mno-hw-mul/libgcc.a(_umoddi3.o)
 .debug_ranges  0x00000790       0x30 /opt/altera/nios2eds/bin/gnu/H-i686-pc-linux-gnu/bin/../lib/gcc/nios2-elf/4.1.2/mno-hw-mul/libgcc.a(_addsub_df.o)
 .debug_ranges  0x000007c0       0x88 /opt/altera/nios2eds/bin/gnu/H-i686-pc-linux-gnu/bin/../lib/gcc/nios2-elf/4.1.2/mno-hw-mul/libgcc.a(_mul_df.o)
 .debug_ranges  0x00000848       0x50 /opt/altera/nios2eds/bin/gnu/H-i686-pc-linux-gnu/bin/../lib/gcc/nios2-elf/4.1.2/mno-hw-mul/libgcc.a(_div_df.o)
 .debug_ranges  0x00000898       0x18 /opt/altera/nios2eds/bin/gnu/H-i686-pc-linux-gnu/bin/../lib/gcc/nios2-elf/4.1.2/mno-hw-mul/libgcc.a(_usi_to_df.o)
 .debug_ranges  0x000008b0       0x88 /opt/altera/nios2eds/bin/gnu/H-i686-pc-linux-gnu/bin/../lib/gcc/nios2-elf/4.1.2/mno-hw-mul/libgcc.a(_muldi3.o)
 .debug_ranges  0x00000938       0x28 /opt/altera/nios2eds/bin/gnu/H-i686-pc-linux-gnu/bin/../lib/gcc/nios2-elf/4.1.2/mno-hw-mul/libgcc.a(_clzsi2.o)
 .debug_ranges  0x00000960       0x28 /opt/altera/nios2eds/bin/gnu/H-i686-pc-linux-gnu/bin/../lib/gcc/nios2-elf/4.1.2/mno-hw-mul/libgcc.a(_pack_df.o)
 .debug_ranges  0x00000988       0x18 ../de1_ucosii_tutorial_bsp//libucosii_bsp.a(altera_avalon_jtag_uart_init.o)
 .debug_ranges  0x000009a0       0x28 ../de1_ucosii_tutorial_bsp//libucosii_bsp.a(alt_irq_entry.o)
 .debug_ranges  0x000009c8       0x30 ../de1_ucosii_tutorial_bsp//libucosii_bsp.a(alt_exception_entry.o)
